(dp1
S'output'
p2
S"<type 'exceptions.AttributeError'> 'bool' object has no attribute 'encode'"
p3
sS'layer'
p4
S'/var/www/python/web2py/applications/ElementarTrumpf/views/ElementarTrumpfControl/kartenZiehen.html'
p5
sS'code'
p6
S'response.write(\'\\xef\\xbb\\xbf<!DOCTYPE html>\\n<html lang="de">\\n\\t<head>\\n\\t  <meta http-equiv="content-type" content="text/html; charset=UTF-8" />\\n\\t  <title>Elementar Trumpf</title>\\n\\t  <link rel="stylesheet" href="/ElementarTrumpf/static/css/styleshit.css"></link>\\n\\t</head>\\n\\n\\t<body style="width: 800px">\\n\\t  <header id="header">\\n\\t\\t  <div style="height: 100px">\\n\\t\\t\\t  <div class="spieler" style="float:left;"><p>\', escape=False)\nresponse.write(session.humanScore)\nresponse.write(\'</p></div>\\n\\t\\t\\t  <div class="spieler" style="float:right;"><p style="float: right;">\', escape=False)\nresponse.write(session.aiScore)\nresponse.write(\'</p></div>\\n\\t\\t  </div>\\n\\t  </header>\\n\\t\\t<div id="arena" style="height: 400px; width:100%;"> \\n\\t\\t\\t<div id="k1" class="karte">\\n\\t\\t\\t\\t\', escape=False)\nif humanMonsterValue:\n    response.write(\'\\n\\t\\t\\t\\t<div style="">\\n\\t\\t\\t\\t\\t<img src="/ElementarTrumpf/static/images/\', escape=False)\n    response.write(humanMonsterValue[0])\n    response.write(\'"></img>\\n\\t\\t\\t\\t</div>\\n\\t\\t\\t\\t<div class= "eigenschaften">\\n\\t\\t\\t\\t\\t<ul style="list-style:none; text-align:left; margin-left:15px;">\\n\\t\\t\\t\\t\\t\\t<li>Name: \', escape=False)\n    response.write(humanMonsterValue[1])\n    response.write(\'</li>\\n\\t\\t\\t\\t\\t\\t<li>\', escape=False)\n    response.write(humanMonsterValue[2])\n    response.write(\': \', escape=False)\n    response.write(humanMonsterValue[3])\n    response.write(\'</li>\\n\\t\\t\\t\\t\\t</ul>\\n\\t\\t\\t\\t</div>\\n\\t\\t\\t\\t\', escape=False)\nelse:\n    response.write(\'\\n\\t\\t\\t\\t<div style="">\\n\\t\\t\\t\\t\\t<img src="/ElementarTrumpf/static/images/VK.gif"></img>\\n\\t\\t\\t\\t</div>\\n\\t\\t\\t\\t<div class= "eigenschaften"></div>\\n\\t\\t\\t\\t\', escape=False)\n    pass\nresponse.write(\'\\n\\t\\t\\t</div>\\n\\n\\t\\t\\t<div id="vs">\\n\\t\\t\\t\\t<img src="/ElementarTrumpf/static/images/VS.gif"></img>\\n\\t\\t\\t</div>\\n\\n\\t\\t\\t<div id="k2" class="karte">\\n\\t\\t\\t\\t\', escape=False)\nif aiMonsterValue:\n    response.write(\'\\n\\t\\t\\t\\t<div style="">\\n\\t\\t\\t\\t\\t<img src="/ElementarTrumpf/static/images/\', escape=False)\n    response.write(aiMonsterValue[0])\n    response.write(\'"></img>\\n\\t\\t\\t\\t</div>\\n\\t\\t\\t\\t<div class= "eigenschaften">\\n\\t\\t\\t\\t\\t<ul style="list-style:none; text-align:left; margin-left:15px;">\\n\\t\\t\\t\\t\\t\\t<li>Name: \', escape=False)\n    response.write(aiMonsterValue[1])\n    response.write(\'</li>\\n\\t\\t\\t\\t\\t\\t<li>\', escape=False)\n    response.write(aiMonsterValue[2])\n    response.write(\': \', escape=False)\n    response.write(aiMonsterValue[3])\n    response.write(\'</li>\\n\\t\\t\\t\\t\\t</ul>\\n\\t\\t\\t\\t</div>\\n\\t\\t\\t\\t\', escape=False)\nelse:\n    response.write(\'\\n\\t\\t\\t\\t<div style="">\\n\\t\\t\\t\\t\\t<img src="/ElementarTrumpf/static/images/VK.gif"></img>\\n\\t\\t\\t\\t</div>\\n\\t\\t\\t\\t<div class= "eigenschaften"></div>\\n\\t\\t\\t\\t\', escape=False)\n    pass\nresponse.write(\'\\n\\t\\t\\t</div>\\n\\t\\t</div>\\n\\t\\t<footer style="height: 100px; width:100%;">\\n\\t\\t\\t\', escape=False)\nif message:\n    response.write(\'\\n\\t\\t\\t\\t<div style="font-size: 20px;" >\', escape=False)\n    response.write(message)\n    response.write(\'</div>\\n\\t\\t\\t\', escape=False)\n    pass\nresponse.write(\'\\n\\t\\t\\t<div style="font-size: 20px;" > W\\xc3\\xa4hle eine Eigenschaft! Dr\\xc3\\xbccke <a href="\', escape=False)\nresponse.write(URL(vars=dict(choice=\'groesse\')))\nresponse.write(\'">g f\\xc3\\xbcr Gr\\xc3\\xb6\\xc3\\x9fe</a>, <a href="\', escape=False)\nresponse.write(URL(vars=dict(choice=\'initiative\')))\nresponse.write(\'">i f\\xc3\\xbcr Initiative</a> oder <a href="\', escape=False)\nresponse.write(URL(vars=dict(choice=\'staerke\')))\nresponse.write(\'">s f\\xc3\\xbcr St\\xc3\\xa4rke</a> !?</div>\\n\\t\\t</footer>\\n\\t</body>\\n</html>\\n\', escape=False)'
p7
sS'snapshot'
p8
(dp9
S'exception'
p10
(dp11
S'__getslice__'
p12
S"<method-wrapper '__getslice__' of exceptions.AttributeError object>"
p13
sS'__str__'
p14
S"<method-wrapper '__str__' of exceptions.AttributeError object>"
p15
sS'__reduce__'
p16
S'<built-in method __reduce__ of exceptions.AttributeError object>'
p17
sS'__dict__'
p18
S'{}'
p19
sS'message'
p20
S'"\'bool\' object has no attribute \'encode\'"'
p21
sS'__sizeof__'
p22
S'<built-in method __sizeof__ of exceptions.AttributeError object>'
p23
sS'__init__'
p24
S"<method-wrapper '__init__' of exceptions.AttributeError object>"
p25
sS'__setattr__'
p26
S"<method-wrapper '__setattr__' of exceptions.AttributeError object>"
p27
sS'__reduce_ex__'
p28
S'<built-in method __reduce_ex__ of exceptions.AttributeError object>'
p29
sS'__new__'
p30
S'<built-in method __new__ of type object>'
p31
sS'__format__'
p32
S'<built-in method __format__ of exceptions.AttributeError object>'
p33
sS'__class__'
p34
S"<type 'exceptions.AttributeError'>"
p35
sS'__doc__'
p36
S"'Attribute not found.'"
p37
sS'__getitem__'
p38
S"<method-wrapper '__getitem__' of exceptions.AttributeError object>"
p39
sS'__setstate__'
p40
S'<built-in method __setstate__ of exceptions.AttributeError object>'
p41
sS'__getattribute__'
p42
S"<method-wrapper '__getattribute__' of exceptions.AttributeError object>"
p43
sS'args'
p44
S'("\'bool\' object has no attribute \'encode\'",)'
p45
sS'__subclasshook__'
p46
S'<built-in method __subclasshook__ of type object>'
p47
sS'__unicode__'
p48
S'<built-in method __unicode__ of exceptions.AttributeError object>'
p49
sS'__delattr__'
p50
S"<method-wrapper '__delattr__' of exceptions.AttributeError object>"
p51
sS'__repr__'
p52
S"<method-wrapper '__repr__' of exceptions.AttributeError object>"
p53
sS'__hash__'
p54
S"<method-wrapper '__hash__' of exceptions.AttributeError object>"
p55
ssS'evalue'
p56
S"'bool' object has no attribute 'encode'"
p57
sS'request'
p58
cgluon.html
XML_unpickle
p59
(S's8^\x00\x00<div><table><tr><td style="font-weight:bold;vertical-align:top;">ajax</td><td style="vertical-align:top;">:</td><td><div>False</div></td></tr><tr><td style="font-weight:bold;vertical-align:top;">application</td><td style="vertical-align:top;">:</td><td><div>ElementarTrumpf</div></td></tr><tr><td style="font-weight:bold;vertical-align:top;">args</td><td style="vertical-align:top;">:</td><td><div><table></table></div></td></tr><tr><td style="font-weight:bold;vertical-align:top;">cid</td><td style="vertical-align:top;">:</td><td><div>None</div></td></tr><tr><td style="font-weight:bold;vertical-align:top;">client</td><td style="vertical-align:top;">:</td><td><div>192.168.0.5</div></td></tr><tr><td style="font-weight:bold;vertical-align:top;">controller</td><td style="vertical-align:top;">:</td><td><div>ElementarTrumpfControl</div></td></tr><tr><td style="font-weight:bold;vertical-align:top;">cookies</td><td style="vertical-align:top;">:</td><td><div><table><tr><td style="font-weight:bold;vertical-align:top;">session_id_admin</td><td style="vertical-align:top;">:</td><td><div>192.168.0.5-4f7a94fc-c187-46d3-ae48-250817e1f088<table><tr><td style="font-weight:bold;vertical-align:top;">comment</td><td style="vertical-align:top;">:</td><td><div></div></td></tr><tr><td style="font-weight:bold;vertical-align:top;">domain</td><td style="vertical-align:top;">:</td><td><div></div></td></tr><tr><td style="font-weight:bold;vertical-align:top;">expires</td><td style="vertical-align:top;">:</td><td><div></div></td></tr><tr><td style="font-weight:bold;vertical-align:top;">httponly</td><td style="vertical-align:top;">:</td><td><div></div></td></tr><tr><td style="font-weight:bold;vertical-align:top;">max-age</td><td style="vertical-align:top;">:</td><td><div></div></td></tr><tr><td style="font-weight:bold;vertical-align:top;">path</td><td style="vertical-align:top;">:</td><td><div></div></td></tr><tr><td style="font-weight:bold;vertical-align:top;">samesite</td><td style="vertical-align:top;">:</td><td><div></div></td></tr><tr><td style="font-weight:bold;vertical-align:top;">secure</td><td style="vertical-align:top;">:</td><td><div></div></td></tr><tr><td style="font-weight:bold;vertical-align:top;">version</td><td style="vertical-align:top;">:</td><td><div></div></td></tr></table></div></td></tr><tr><td style="font-weight:bold;vertical-align:top;">session_id_elementartrumpf</td><td style="vertical-align:top;">:</td><td><div>192.168.0.5-d6347f0b-3f45-421a-a9bc-c3df72032233<table><tr><td style="font-weight:bold;vertical-align:top;">comment</td><td style="vertical-align:top;">:</td><td><div></div></td></tr><tr><td style="font-weight:bold;vertical-align:top;">domain</td><td style="vertical-align:top;">:</td><td><div></div></td></tr><tr><td style="font-weight:bold;vertical-align:top;">expires</td><td style="vertical-align:top;">:</td><td><div></div></td></tr><tr><td style="font-weight:bold;vertical-align:top;">httponly</td><td style="vertical-align:top;">:</td><td><div></div></td></tr><tr><td style="font-weight:bold;vertical-align:top;">max-age</td><td style="vertical-align:top;">:</td><td><div></div></td></tr><tr><td style="font-weight:bold;vertical-align:top;">path</td><td style="vertical-align:top;">:</td><td><div></div></td></tr><tr><td style="font-weight:bold;vertical-align:top;">samesite</td><td style="vertical-align:top;">:</td><td><div></div></td></tr><tr><td style="font-weight:bold;vertical-align:top;">secure</td><td style="vertical-align:top;">:</td><td><div></div></td></tr><tr><td style="font-weight:bold;vertical-align:top;">version</td><td style="vertical-align:top;">:</td><td><div></div></td></tr></table></div></td></tr><tr><td style="font-weight:bold;vertical-align:top;">session_id_welcome</td><td style="vertical-align:top;">:</td><td><div>192.168.0.5-d90e60e0-4e82-44ae-9e4d-392d7d78b13f<table><tr><td style="font-weight:bold;vertical-align:top;">comment</td><td style="vertical-align:top;">:</td><td><div></div></td></tr><tr><td style="font-weight:bold;vertical-align:top;">domain</td><td style="vertical-align:top;">:</td><td><div></div></td></tr><tr><td style="font-weight:bold;vertical-align:top;">expires</td><td style="vertical-align:top;">:</td><td><div></div></td></tr><tr><td style="font-weight:bold;vertical-align:top;">httponly</td><td style="vertical-align:top;">:</td><td><div></div></td></tr><tr><td style="font-weight:bold;vertical-align:top;">max-age</td><td style="vertical-align:top;">:</td><td><div></div></td></tr><tr><td style="font-weight:bold;vertical-align:top;">path</td><td style="vertical-align:top;">:</td><td><div></div></td></tr><tr><td style="font-weight:bold;vertical-align:top;">samesite</td><td style="vertical-align:top;">:</td><td><div></div></td></tr><tr><td style="font-weight:bold;vertical-align:top;">secure</td><td style="vertical-align:top;">:</td><td><div></div></td></tr><tr><td style="font-weight:bold;vertical-align:top;">version</td><td style="vertical-align:top;">:</td><td><div></div></td></tr></table></div></td></tr></table></div></td></tr><tr><td style="font-weight:bold;vertical-align:top;">env</td><td style="vertical-align:top;">:</td><td><div><table><tr><td style="font-weight:bold;vertical-align:top;">HTTP_ACCEPT</td><td style="vertical-align:top;">:</td><td><div>text/html,application/xhtml+xml,application/xml;q=0.9,image/webp,*/*;q=0.8</div></td></tr><tr><td style="font-weight:bold;vertical-align:top;">HTTP_ACCEPT_ENCODING</td><td style="vertical-align:top;">:</td><td><div>gzip, deflate</div></td></tr><tr><td style="font-weight:bold;vertical-align:top;">HTTP_ACCEPT_LANGUAGE</td><td style="vertical-align:top;">:</td><td><div>en-US,en;q=0.5</div></td></tr><tr><td style="font-weight:bold;vertical-align:top;">HTTP_CONNECTION</td><td style="vertical-align:top;">:</td><td><div>keep-alive</div></td></tr><tr><td style="font-weight:bold;vertical-align:top;">HTTP_COOKIE</td><td style="vertical-align:top;">:</td><td><div>session_id_welcome=192.168.0.5-d90e60e0-4e82-44ae-9e4d-392d7d78b13f; session_id_elementartrumpf=192.168.0.5-d6347f0b-3f45-421a-a9bc-c3df72032233; session_id_admin=192.168.0.5-4f7a94fc-c187-46d3-ae48-250817e1f088</div></td></tr><tr><td style="font-weight:bold;vertical-align:top;">HTTP_HOST</td><td style="vertical-align:top;">:</td><td><div>192.168.0.11:8000</div></td></tr><tr><td style="font-weight:bold;vertical-align:top;">HTTP_REFERER</td><td style="vertical-align:top;">:</td><td><div>http://192.168.0.11:8000/kartenZiehen?choice=initiative</div></td></tr><tr><td style="font-weight:bold;vertical-align:top;">HTTP_UPGRADE_INSECURE_REQUESTS</td><td style="vertical-align:top;">:</td><td><div>1</div></td></tr><tr><td style="font-weight:bold;vertical-align:top;">HTTP_USER_AGENT</td><td style="vertical-align:top;">:</td><td><div>Mozilla/5.0 (Windows NT 6.1; Win64; x64; rv:65.0) Gecko/20100101 Firefox/65.0</div></td></tr><tr><td style="font-weight:bold;vertical-align:top;">PATH_INFO</td><td style="vertical-align:top;">:</td><td><div>/kartenZiehen</div></td></tr><tr><td style="font-weight:bold;vertical-align:top;">QUERY_STRING</td><td style="vertical-align:top;">:</td><td><div>choice=groesse</div></td></tr><tr><td style="font-weight:bold;vertical-align:top;">REMOTE_ADDR</td><td style="vertical-align:top;">:</td><td><div>192.168.0.5</div></td></tr><tr><td style="font-weight:bold;vertical-align:top;">REMOTE_PORT</td><td style="vertical-align:top;">:</td><td><div>53647</div></td></tr><tr><td style="font-weight:bold;vertical-align:top;">REQUEST_METHOD</td><td style="vertical-align:top;">:</td><td><div>GET</div></td></tr><tr><td style="font-weight:bold;vertical-align:top;">SCRIPT_NAME</td><td style="vertical-align:top;">:</td><td><div></div></td></tr><tr><td style="font-weight:bold;vertical-align:top;">SERVER_NAME</td><td style="vertical-align:top;">:</td><td><div>raspberrypi</div></td></tr><tr><td style="font-weight:bold;vertical-align:top;">SERVER_PORT</td><td style="vertical-align:top;">:</td><td><div>8000</div></td></tr><tr><td style="font-weight:bold;vertical-align:top;">SERVER_PROTOCOL</td><td style="vertical-align:top;">:</td><td><div>HTTP/1.1</div></td></tr><tr><td style="font-weight:bold;vertical-align:top;">SERVER_SOFTWARE</td><td style="vertical-align:top;">:</td><td><div>Rocket 1.2.6</div></td></tr><tr><td style="font-weight:bold;vertical-align:top;">app_folders</td><td style="vertical-align:top;">:</td><td><div>set([&#x27;/var/www/python/web2py/applications/ElementarTrumpf/&#x27;, &#x27;/var/www/python/web2py/applications/admin/&#x27;, &#x27;/var/www/python/web2py/applications/welcome/&#x27;])</div></td></tr><tr><td style="font-weight:bold;vertical-align:top;">applications_parent</td><td style="vertical-align:top;">:</td><td><div>/var/www/python/web2py</div></td></tr><tr><td style="font-weight:bold;vertical-align:top;">cmd_args</td><td style="vertical-align:top;">:</td><td><div><table></table></div></td></tr><tr><td style="font-weight:bold;vertical-align:top;">cmd_options</td><td style="vertical-align:top;">:</td><td><div>&lt;Values at 0x76034670: {&#x27;verbose&#x27;: False, &#x27;ip&#x27;: &#x27;127.0.0.1&#x27;, &#x27;debuglevel&#x27;: 30, &#x27;with_scheduler&#x27;: False, &#x27;shutdown_timeout&#x27;: 5, &#x27;taskbar&#x27;: False, &#x27;with_coverage&#x27;: False, &#x27;pid_filename&#x27;: &#x27;httpserver.pid&#x27;, &#x27;maxthreads&#x27;: None, &#x27;softcron&#x27;: False, &#x27;server_name&#x27;: &#x27;raspberrypi&#x27;, &#x27;bpython&#x27;: False, &#x27;nogui&#x27;: False, &#x27;port&#x27;: 8000, &#x27;print_errors&#x27;: False, &#x27;extcron&#x27;: False, &#x27;runcron&#x27;: False, &#x27;run_system_tests&#x27;: False, &#x27;test&#x27;: None, &#x27;folder&#x27;: &#x27;/var/www/python/web2py&#x27;, &#x27;config&#x27;: &#x27;options.py&#x27;, &#x27;minthreads&#x27;: None, &#x27;shell&#x27;: None, &#x27;run&#x27;: &#x27;&#x27;, &#x27;log_filename&#x27;: &#x27;httpserver.log&#x27;, &#x27;profiler_dir&#x27;: None, &#x27;args&#x27;: [&#x27;&#x27;], &#x27;socket_timeout&#x27;: 5, &#x27;ssl_ca_certificate&#x27;: None, &#x27;scheduler&#x27;: None, &#x27;interfaces&#x27;: None, &#x27;ssl_private_key&#x27;: &#x27;&#x27;, &#x27;gae&#x27;: None, &#x27;password&#x27;: &#x27;******&#x27;, &#x27;request_queue_size&#x27;: 5, &#x27;ssl_certificate&#x27;: &#x27;&#x27;, &#x27;cronjob&#x27;: False, &#x27;numthreads&#x27;: None, &#x27;quiet&#x27;: False, &#x27;import_models&#x27;: False, &#x27;timeout&#x27;: 10, &#x27;plain&#x27;: False, &#x27;nobanner&#x27;: False}&gt;</div></td></tr><tr><td style="font-weight:bold;vertical-align:top;">db_sessions</td><td style="vertical-align:top;">:</td><td><div>set([])</div></td></tr><tr><td style="font-weight:bold;vertical-align:top;">debugging</td><td style="vertical-align:top;">:</td><td><div>False</div></td></tr><tr><td style="font-weight:bold;vertical-align:top;">gluon_parent</td><td style="vertical-align:top;">:</td><td><div>/var/www/python/web2py</div></td></tr><tr><td style="font-weight:bold;vertical-align:top;">http_accept</td><td style="vertical-align:top;">:</td><td><div>text/html,application/xhtml+xml,application/xml;q=0.9,image/webp,*/*;q=0.8</div></td></tr><tr><td style="font-weight:bold;vertical-align:top;">http_accept_encoding</td><td style="vertical-align:top;">:</td><td><div>gzip, deflate</div></td></tr><tr><td style="font-weight:bold;vertical-align:top;">http_accept_language</td><td style="vertical-align:top;">:</td><td><div>en-US,en;q=0.5</div></td></tr><tr><td style="font-weight:bold;vertical-align:top;">http_connection</td><td style="vertical-align:top;">:</td><td><div>keep-alive</div></td></tr><tr><td style="font-weight:bold;vertical-align:top;">http_cookie</td><td style="vertical-align:top;">:</td><td><div>session_id_welcome=192.168.0.5-d90e60e0-4e82-44ae-9e4d-392d7d78b13f; session_id_elementartrumpf=192.168.0.5-d6347f0b-3f45-421a-a9bc-c3df72032233; session_id_admin=192.168.0.5-4f7a94fc-c187-46d3-ae48-250817e1f088</div></td></tr><tr><td style="font-weight:bold;vertical-align:top;">http_host</td><td style="vertical-align:top;">:</td><td><div>192.168.0.11:8000</div></td></tr><tr><td style="font-weight:bold;vertical-align:top;">http_referer</td><td style="vertical-align:top;">:</td><td><div>http://192.168.0.11:8000/kartenZiehen?choice=initiative</div></td></tr><tr><td style="font-weight:bold;vertical-align:top;">http_upgrade_insecure_requests</td><td style="vertical-align:top;">:</td><td><div>1</div></td></tr><tr><td style="font-weight:bold;vertical-align:top;">http_user_agent</td><td style="vertical-align:top;">:</td><td><div>Mozilla/5.0 (Windows NT 6.1; Win64; x64; rv:65.0) Gecko/20100101 Firefox/65.0</div></td></tr><tr><td style="font-weight:bold;vertical-align:top;">is_jython</td><td style="vertical-align:top;">:</td><td><div>False</div></td></tr><tr><td style="font-weight:bold;vertical-align:top;">is_py2</td><td style="vertical-align:top;">:</td><td><div>True</div></td></tr><tr><td style="font-weight:bold;vertical-align:top;">is_pypy</td><td style="vertical-align:top;">:</td><td><div>False</div></td></tr><tr><td style="font-weight:bold;vertical-align:top;">is_source</td><td style="vertical-align:top;">:</td><td><div>True</div></td></tr><tr><td style="font-weight:bold;vertical-align:top;">local_hosts</td><td style="vertical-align:top;">:</td><td><div><table><tr><td><div>raspberrypi</div></td></tr><tr><td><div>::1</div></td></tr><tr><td><div>127.0.1.1</div></td></tr><tr><td><div>::ffff:127.0.0.1</div></td></tr><tr><td><div>127.0.0.1</div></td></tr></table></div></td></tr><tr><td style="font-weight:bold;vertical-align:top;">path_info</td><td style="vertical-align:top;">:</td><td><div>/kartenZiehen</div></td></tr><tr><td style="font-weight:bold;vertical-align:top;">query_string</td><td style="vertical-align:top;">:</td><td><div>choice=groesse</div></td></tr><tr><td style="font-weight:bold;vertical-align:top;">remote_addr</td><td style="vertical-align:top;">:</td><td><div>192.168.0.5</div></td></tr><tr><td style="font-weight:bold;vertical-align:top;">remote_port</td><td style="vertical-align:top;">:</td><td><div>53647</div></td></tr><tr><td style="font-weight:bold;vertical-align:top;">request_method</td><td style="vertical-align:top;">:</td><td><div>GET</div></td></tr><tr><td style="font-weight:bold;vertical-align:top;">request_uri</td><td style="vertical-align:top;">:</td><td><div>/ElementarTrumpf/ElementarTrumpfControl/kartenZiehen?choice=groesse</div></td></tr><tr><td style="font-weight:bold;vertical-align:top;">script_name</td><td style="vertical-align:top;">:</td><td><div></div></td></tr><tr><td style="font-weight:bold;vertical-align:top;">server_name</td><td style="vertical-align:top;">:</td><td><div>raspberrypi</div></td></tr><tr><td style="font-weight:bold;vertical-align:top;">server_port</td><td style="vertical-align:top;">:</td><td><div>8000</div></td></tr><tr><td style="font-weight:bold;vertical-align:top;">server_protocol</td><td style="vertical-align:top;">:</td><td><div>HTTP/1.1</div></td></tr><tr><td style="font-weight:bold;vertical-align:top;">server_software</td><td style="vertical-align:top;">:</td><td><div>Rocket 1.2.6</div></td></tr><tr><td style="font-weight:bold;vertical-align:top;">web2py_original_uri</td><td style="vertical-align:top;">:</td><td><div>/kartenZiehen?choice=groesse</div></td></tr><tr><td style="font-weight:bold;vertical-align:top;">web2py_path</td><td style="vertical-align:top;">:</td><td><div>/var/www/python/web2py</div></td></tr><tr><td style="font-weight:bold;vertical-align:top;">web2py_version</td><td style="vertical-align:top;">:</td><td><div>2.17.2-stable+timestamp.2018.10.06.18.54.02</div></td></tr><tr><td style="font-weight:bold;vertical-align:top;">wsgi.errors</td><td style="vertical-align:top;">:</td><td><div>&lt;open file &#x27;&lt;stderr&gt;&#x27;, mode &#x27;w&#x27; at 0x76c970d0&gt;</div></td></tr><tr><td style="font-weight:bold;vertical-align:top;">wsgi.file_wrapper</td><td style="vertical-align:top;">:</td><td><div>&lt;class wsgiref.util.FileWrapper at 0x760a91b8&gt;</div></td></tr><tr><td style="font-weight:bold;vertical-align:top;">wsgi.input</td><td style="vertical-align:top;">:</td><td><div>&lt;socket._fileobject object at 0x6f696cf0&gt;</div></td></tr><tr><td style="font-weight:bold;vertical-align:top;">wsgi.multiprocess</td><td style="vertical-align:top;">:</td><td><div>False</div></td></tr><tr><td style="font-weight:bold;vertical-align:top;">wsgi.multithread</td><td style="vertical-align:top;">:</td><td><div>True</div></td></tr><tr><td style="font-weight:bold;vertical-align:top;">wsgi.run_once</td><td style="vertical-align:top;">:</td><td><div>False</div></td></tr><tr><td style="font-weight:bold;vertical-align:top;">wsgi.url_scheme</td><td style="vertical-align:top;">:</td><td><div>http</div></td></tr><tr><td style="font-weight:bold;vertical-align:top;">wsgi.version</td><td style="vertical-align:top;">:</td><td><div><table><tr><td><div>1</div></td></tr><tr><td><div>0</div></td></tr></table></div></td></tr><tr><td style="font-weight:bold;vertical-align:top;">wsgi_errors</td><td style="vertical-align:top;">:</td><td><div>&lt;open file &#x27;&lt;stderr&gt;&#x27;, mode &#x27;w&#x27; at 0x76c970d0&gt;</div></td></tr><tr><td style="font-weight:bold;vertical-align:top;">wsgi_file_wrapper</td><td style="vertical-align:top;">:</td><td><div>&lt;class wsgiref.util.FileWrapper at 0x760a91b8&gt;</div></td></tr><tr><td style="font-weight:bold;vertical-align:top;">wsgi_input</td><td style="vertical-align:top;">:</td><td><div>&lt;socket._fileobject object at 0x6f696cf0&gt;</div></td></tr><tr><td style="font-weight:bold;vertical-align:top;">wsgi_multiprocess</td><td style="vertical-align:top;">:</td><td><div>False</div></td></tr><tr><td style="font-weight:bold;vertical-align:top;">wsgi_multithread</td><td style="vertical-align:top;">:</td><td><div>True</div></td></tr><tr><td style="font-weight:bold;vertical-align:top;">wsgi_run_once</td><td style="vertical-align:top;">:</td><td><div>False</div></td></tr><tr><td style="font-weight:bold;vertical-align:top;">wsgi_url_scheme</td><td style="vertical-align:top;">:</td><td><div>http</div></td></tr><tr><td style="font-weight:bold;vertical-align:top;">wsgi_version</td><td style="vertical-align:top;">:</td><td><div><table><tr><td><div>1</div></td></tr><tr><td><div>0</div></td></tr></table></div></td></tr></table></div></td></tr><tr><td style="font-weight:bold;vertical-align:top;">extension</td><td style="vertical-align:top;">:</td><td><div>html</div></td></tr><tr><td style="font-weight:bold;vertical-align:top;">folder</td><td style="vertical-align:top;">:</td><td><div>/var/www/python/web2py/applications/ElementarTrumpf/</div></td></tr><tr><td style="font-weight:bold;vertical-align:top;">function</td><td style="vertical-align:top;">:</td><td><div>kartenZiehen</div></td></tr><tr><td style="font-weight:bold;vertical-align:top;">global_settings</td><td style="vertical-align:top;">:</td><td><div><table><tr><td style="font-weight:bold;vertical-align:top;">app_folders</td><td style="vertical-align:top;">:</td><td><div>set([&#x27;/var/www/python/web2py/applications/ElementarTrumpf/&#x27;, &#x27;/var/www/python/web2py/applications/admin/&#x27;, &#x27;/var/www/python/web2py/applications/welcome/&#x27;])</div></td></tr><tr><td style="font-weight:bold;vertical-align:top;">applications_parent</td><td style="vertical-align:top;">:</td><td><div>/var/www/python/web2py</div></td></tr><tr><td style="font-weight:bold;vertical-align:top;">cmd_args</td><td style="vertical-align:top;">:</td><td><div><table></table></div></td></tr><tr><td style="font-weight:bold;vertical-align:top;">cmd_options</td><td style="vertical-align:top;">:</td><td><div>&lt;Values at 0x76034670: {&#x27;verbose&#x27;: False, &#x27;ip&#x27;: &#x27;127.0.0.1&#x27;, &#x27;debuglevel&#x27;: 30, &#x27;with_scheduler&#x27;: False, &#x27;shutdown_timeout&#x27;: 5, &#x27;taskbar&#x27;: False, &#x27;with_coverage&#x27;: False, &#x27;pid_filename&#x27;: &#x27;httpserver.pid&#x27;, &#x27;maxthreads&#x27;: None, &#x27;softcron&#x27;: False, &#x27;server_name&#x27;: &#x27;raspberrypi&#x27;, &#x27;bpython&#x27;: False, &#x27;nogui&#x27;: False, &#x27;port&#x27;: 8000, &#x27;print_errors&#x27;: False, &#x27;extcron&#x27;: False, &#x27;runcron&#x27;: False, &#x27;run_system_tests&#x27;: False, &#x27;test&#x27;: None, &#x27;folder&#x27;: &#x27;/var/www/python/web2py&#x27;, &#x27;config&#x27;: &#x27;options.py&#x27;, &#x27;minthreads&#x27;: None, &#x27;shell&#x27;: None, &#x27;run&#x27;: &#x27;&#x27;, &#x27;log_filename&#x27;: &#x27;httpserver.log&#x27;, &#x27;profiler_dir&#x27;: None, &#x27;args&#x27;: [&#x27;&#x27;], &#x27;socket_timeout&#x27;: 5, &#x27;ssl_ca_certificate&#x27;: None, &#x27;scheduler&#x27;: None, &#x27;interfaces&#x27;: None, &#x27;ssl_private_key&#x27;: &#x27;&#x27;, &#x27;gae&#x27;: None, &#x27;password&#x27;: &#x27;******&#x27;, &#x27;request_queue_size&#x27;: 5, &#x27;ssl_certificate&#x27;: &#x27;&#x27;, &#x27;cronjob&#x27;: False, &#x27;numthreads&#x27;: None, &#x27;quiet&#x27;: False, &#x27;import_models&#x27;: False, &#x27;timeout&#x27;: 10, &#x27;plain&#x27;: False, &#x27;nobanner&#x27;: False}&gt;</div></td></tr><tr><td style="font-weight:bold;vertical-align:top;">db_sessions</td><td style="vertical-align:top;">:</td><td><div>set([])</div></td></tr><tr><td style="font-weight:bold;vertical-align:top;">debugging</td><td style="vertical-align:top;">:</td><td><div>False</div></td></tr><tr><td style="font-weight:bold;vertical-align:top;">gluon_parent</td><td style="vertical-align:top;">:</td><td><div>/var/www/python/web2py</div></td></tr><tr><td style="font-weight:bold;vertical-align:top;">is_jython</td><td style="vertical-align:top;">:</td><td><div>False</div></td></tr><tr><td style="font-weight:bold;vertical-align:top;">is_py2</td><td style="vertical-align:top;">:</td><td><div>True</div></td></tr><tr><td style="font-weight:bold;vertical-align:top;">is_pypy</td><td style="vertical-align:top;">:</td><td><div>False</div></td></tr><tr><td style="font-weight:bold;vertical-align:top;">is_source</td><td style="vertical-align:top;">:</td><td><div>True</div></td></tr><tr><td style="font-weight:bold;vertical-align:top;">local_hosts</td><td style="vertical-align:top;">:</td><td><div><table><tr><td><div>raspberrypi</div></td></tr><tr><td><div>::1</div></td></tr><tr><td><div>127.0.1.1</div></td></tr><tr><td><div>::ffff:127.0.0.1</div></td></tr><tr><td><div>127.0.0.1</div></td></tr></table></div></td></tr><tr><td style="font-weight:bold;vertical-align:top;">web2py_version</td><td style="vertical-align:top;">:</td><td><div>2.17.2-stable+timestamp.2018.10.06.18.54.02</div></td></tr></table></div></td></tr><tr><td style="font-weight:bold;vertical-align:top;">is_https</td><td style="vertical-align:top;">:</td><td><div>False</div></td></tr><tr><td style="font-weight:bold;vertical-align:top;">is_local</td><td style="vertical-align:top;">:</td><td><div>False</div></td></tr><tr><td style="font-weight:bold;vertical-align:top;">is_restful</td><td style="vertical-align:top;">:</td><td><div>False</div></td></tr><tr><td style="font-weight:bold;vertical-align:top;">is_scheduler</td><td style="vertical-align:top;">:</td><td><div>False</div></td></tr><tr><td style="font-weight:bold;vertical-align:top;">is_shell</td><td style="vertical-align:top;">:</td><td><div>False</div></td></tr><tr><td style="font-weight:bold;vertical-align:top;">method</td><td style="vertical-align:top;">:</td><td><div>GET</div></td></tr><tr><td style="font-weight:bold;vertical-align:top;">now</td><td style="vertical-align:top;">:</td><td><div>datetime.datetime(2019, 3, 19, 2, 42, 42, 717985)</div></td></tr><tr><td style="font-weight:bold;vertical-align:top;">url</td><td style="vertical-align:top;">:</td><td><div>/kartenZiehen</div></td></tr><tr><td style="font-weight:bold;vertical-align:top;">utcnow</td><td style="vertical-align:top;">:</td><td><div>datetime.datetime(2019, 3, 19, 2, 42, 42, 718098)</div></td></tr><tr><td style="font-weight:bold;vertical-align:top;">wsgi</td><td style="vertical-align:top;">:</td><td><div>&lt;gluon.main.LazyWSGI object at 0x7678d130&gt;</div></td></tr></table></div>'
tRp60
sS'frames'
p61
(lp62
(dp63
S'file'
p64
S'/var/www/python/web2py/gluon/restricted.py'
p65
sS'dump'
p66
(dp67
S'environment'
p68
S"{'A': <class 'gluon.html.A'>, 'ANY_OF': <class 'gluon.validators.ANY_OF'>, 'ASSIGNJS': <function ASSIGNJS>, 'B': <class 'gluon.html.B'>, 'BEAUTIFY': <class 'gluon.html.BEAUTIFY'>, 'BODY': <class 'gluon.html.BODY'>, 'BR': <class 'gluon.html.BR'>, 'BUTTON': <class 'gluon.html.BUTTON'>, 'CAT': <class 'gluon.html.CAT'>, 'CENTER': <class 'gluon.html.CENTER'>, ...}"
p69
sS'ccode'
p70
S'<code object <module> at 0x6f53ff98, file "/var/...lementarTrumpfControl/kartenZiehen.html", line 1>'
p71
ssS'lnum'
p72
I219
sS'lines'
p73
(dp74
I214
S'    if environment is None:'
p75
sI215
S'        environment = {}'
p76
sI216
S"    environment['__file__'] = layer"
p77
sI217
S"    environment['__name__'] = '__restricted__'"
p78
sI218
S'    try:'
p79
sI219
S'        exec(ccode, environment)'
p80
sI220
S'    except HTTP:'
p81
sI221
S'        raise'
p82
sI222
S'    except RestrictedError:'
p83
sI223
S'        # do not encapsulate (obfuscate) the original RestrictedError'
p84
ssS'call'
p85
S'(ccode=<code object <module> at 0x6f53ff98, file "/var/...lementarTrumpfControl/kartenZiehen.html", line 1>, environment={\'A\': <class \'gluon.html.A\'>, \'ANY_OF\': <class \'gluon.validators.ANY_OF\'>, \'ASSIGNJS\': <function ASSIGNJS>, \'B\': <class \'gluon.html.B\'>, \'BEAUTIFY\': <class \'gluon.html.BEAUTIFY\'>, \'BODY\': <class \'gluon.html.BODY\'>, \'BR\': <class \'gluon.html.BR\'>, \'BUTTON\': <class \'gluon.html.BUTTON\'>, \'CAT\': <class \'gluon.html.CAT\'>, \'CENTER\': <class \'gluon.html.CENTER\'>, ...}, layer=\'/var/www/python/web2py/applications/ElementarTrumpf/views/ElementarTrumpfControl/kartenZiehen.html\', scode=r"response.write(\'\\xef\\xbb\\xbf<!DOCTYPE html>\\n<ht...\\t</footer>\\n\\t</body>\\n</html>\\n\', escape=False)")'
p86
sS'func'
p87
S'restricted'
p88
sa(dp89
g64
S'/var/www/python/web2py/applications/ElementarTrumpf/views/ElementarTrumpfControl/kartenZiehen.html'
p90
sg66
(dp91
S'div'
p92
S'undefined'
p93
ssg72
I34
sg73
(dp94
I32
S'    pass'
p95
sI33
S'response.write(\'\\n\\t\\t\\t</div>\\n\\t\\t</div>\\n\\t\\t<footer style="height: 100px; width:100%;">\\n\\t\\t\\t\', escape=False)'
p96
sI34
S'if message:'
p97
sI35
S'    response.write(\'\\n\\t\\t\\t\\t<div style="font-size: 20px;" >\', escape=False)'
p98
sI36
S'    response.write(message)'
p99
sI37
S"    response.write('</div>\\n\\t\\t\\t', escape=False)"
p100
sI38
S'    pass'
p101
sI39
S'response.write(\'\\n\\t\\t\\t<div style="font-size: 20px;" > W\\xc3\\xa4hle eine Eigenschaft! Dr\\xc3\\xbccke <a href="\', escape=False)'
p102
sI40
S"response.write(URL(vars=dict(choice='groesse')))"
p103
sI41
S'response.write(\'">g f\\xc3\\xbcr Gr\\xc3\\xb6\\xc3\\x9fe</a>, <a href="\', escape=False)'
p104
sI42
S"response.write(URL(vars=dict(choice='initiative')))"
p105
sI43
S'response.write(\'">i f\\xc3\\xbcr Initiative</a> oder <a href="\', escape=False)'
p106
sI44
S"response.write(URL(vars=dict(choice='staerke')))"
p107
sI25
S"    response.write('</li>\\n\\t\\t\\t\\t\\t\\t<li>', escape=False)"
p108
sI26
S'    response.write(aiMonsterValue[2])'
p109
sI27
S"    response.write(': ', escape=False)"
p110
sI28
S'    response.write(aiMonsterValue[3])'
p111
sI29
S"    response.write('</li>\\n\\t\\t\\t\\t\\t</ul>\\n\\t\\t\\t\\t</div>\\n\\t\\t\\t\\t', escape=False)"
p112
sI30
S'else:'
p113
sI31
S'    response.write(\'\\n\\t\\t\\t\\t<div style="">\\n\\t\\t\\t\\t\\t<img src="/ElementarTrumpf/static/images/VK.gif"></img>\\n\\t\\t\\t\\t</div>\\n\\t\\t\\t\\t<div class= "eigenschaften"></div>\\n\\t\\t\\t\\t\', escape=False)'
p114
ssg85
S'()'
p115
sg87
S'<module>'
p116
sa(dp117
g64
S'/var/www/python/web2py/gluon/languages.py'
p118
sg66
(dp119
S'builtinlen'
p120
S'<built-in function len>'
p121
sS'builtinstr'
p122
S"<type 'str'>"
p123
sS'self'
p124
S"<lazyT 'True'>"
p125
ssg72
I428
sg73
(dp126
I423
S'    def __iter__(self):'
p127
sI424
S'        for c in str(self):'
p128
sI425
S'            yield c'
p129
sI426
S''
sI427
S'    def __len__(self):'
p130
sI428
S'        return len(str(self))'
p131
sI429
S''
sI430
S'    def xml(self):'
p132
sI431
S'        return str(self) if self.M else local_html_escape(str(self), quote=False)'
p133
sI432
S''
ssg85
S"(self=<lazyT 'True'>)"
p134
sg87
S'__len__'
p135
sa(dp136
g64
S'/var/www/python/web2py/gluon/languages.py'
p137
sg66
(dp138
S'self.T.translate'
p139
S'<bound method translator.translate of <gluon.languages.translator object>>'
p140
sS'self.s'
p141
g19
sS'self'
p142
S"<lazyT 'True'>"
p143
sS'self.T'
p144
S'<gluon.languages.translator object>'
p145
sS'self.m'
p146
S'True'
p147
ssg72
I391
sg73
(dp148
I386
S'    def __repr__(self):'
p149
sI387
S'        return "<lazyT %s>" % (repr(Utf8(self.m)), )'
p150
sI388
S''
sI389
S'    def __str__(self):'
p151
sI390
S'        return str(self.T.apply_filter(self.m, self.s, self.f, self.t) if self.M else'
p152
sI391
S'                   self.T.translate(self.m, self.s))'
p153
sI392
S''
sI393
S'    def __eq__(self, other):'
p154
sI394
S'        return str(self) == str(other)'
p155
sI395
S''
ssg85
S"(self=<lazyT 'True'>)"
p156
sg87
g14
sa(dp157
g64
S'/var/www/python/web2py/gluon/languages.py'
p158
sg66
(dp159
S'self'
p160
S'<gluon.languages.translator object>'
p161
sS'self.get_t'
p162
S'<bound method translator.get_t of <gluon.languages.translator object>>'
p163
sS'message'
p164
g147
ssg72
I995
sg73
(dp165
I992
S'        Gets cached translated message with inserted parameters(symbols)'
p166
sI993
S'        """'
p167
sI994
S'        message = get_from_cache(self.cache, message,'
p168
sI995
S'                                 lambda: self.get_t(message))'
p169
sI996
S'        if symbols or symbols == 0 or symbols == "":'
p170
sI997
S'            if isinstance(symbols, dict):'
p171
sI998
S'                symbols.update('
p172
sI999
S'                    (key, str(value).translate(ttab_in))'
p173
sI990
S'    def translate(self, message, symbols):'
p174
sI991
S'        """'
p175
ssg85
S'(self=<gluon.languages.translator object>, message=True, symbols={})'
p176
sg87
S'translate'
p177
sa(dp178
g64
S'/var/www/python/web2py/gluon/languages.py'
p179
sg66
(dp180
S'fun'
p181
S'<function <lambda>>'
p182
sS'val'
p183
g147
sS'lang_dict.setdefault'
p184
S'<built-in method setdefault of dict object>'
p185
sS'result'
p186
S'None'
p187
sS'lang_dict'
p188
S"{'groesse': 'groesse', 'initiative': 'initiative', 'seqrg': 'seqrg', 'staerke': 'staerke'}"
p189
ssg72
I151
sg73
(dp190
I146
S'        lock.release()'
p191
sI147
S'    if result:'
p192
sI148
S'        return result'
p193
sI149
S'    lock.acquire()'
p194
sI150
S'    try:'
p195
sI151
S'        result = lang_dict.setdefault(val, fun())'
p196
sI152
S'    finally:'
p197
sI153
S'        lock.release()'
p198
sI154
S'    return result'
p199
sI155
S''
ssg85
S"(cache=({'groesse': 'groesse', 'initiative': 'initiative', 'seqrg': 'seqrg', 'staerke': 'staerke'}, <_RLock owner=None count=0>), val=True, fun=<function <lambda>>)"
p200
sg87
S'get_from_cache'
p201
sa(dp202
g64
S'/var/www/python/web2py/gluon/languages.py'
p203
sg66
(dp204
S'self'
p205
S'<gluon.languages.translator object>'
p206
sS'self.get_t'
p207
S'<bound method translator.get_t of <gluon.languages.translator object>>'
p208
sS'message'
p209
g147
ssg72
I995
sg73
(dp210
I992
S'        Gets cached translated message with inserted parameters(symbols)'
p211
sI993
S'        """'
p212
sI994
S'        message = get_from_cache(self.cache, message,'
p213
sI995
S'                                 lambda: self.get_t(message))'
p214
sI996
S'        if symbols or symbols == 0 or symbols == "":'
p215
sI997
S'            if isinstance(symbols, dict):'
p216
sI998
S'                symbols.update('
p217
sI999
S'                    (key, str(value).translate(ttab_in))'
p218
sI990
S'    def translate(self, message, symbols):'
p219
sI991
S'        """'
p220
ssg85
S'()'
p221
sg87
S'<lambda>'
p222
sa(dp223
g64
S'/var/www/python/web2py/gluon/languages.py'
p224
sg66
(dp225
S'message'
p226
g147
sS'global to_native'
p227
S'<function to_native>'
p228
ssg72
I810
sg73
(dp229
I805
S"            T('hello ## world## token') -> 'hello ## world'"
p230
sI806
S''
sI807
S'        the ## notation is ignored in multiline strings and strings that'
p231
sI808
S'        start with ##. This is needed to allow markmin syntax to be translated'
p232
sI809
S'        """'
p233
sI810
S"        message = to_native(message, 'utf8')"
p234
sI811
S"        prefix = to_native(prefix, 'utf8')"
p235
sI812
S'        key = prefix + message'
p236
sI813
S'        mt = self.t.get(key, None)'
p237
sI814
S'        if mt is not None:'
p238
ssg85
S"(self=<gluon.languages.translator object>, message=True, prefix='')"
p239
sg87
S'get_t'
p240
sa(dp241
g64
S'/var/www/python/web2py/gluon/_compat.py'
p242
sg66
(dp243
S'errors'
p244
S"'strict'"
p245
sS'obj.encode'
p246
g93
sS'obj'
p247
g147
sS'charset'
p248
S"'utf8'"
p249
ssg72
I74
sg73
(dp250
I69
S"        raise TypeError('Expected bytes')"
p251
sI70
S''
sI71
S"    def to_native(obj, charset='utf8', errors='strict'):"
p252
sI72
S'        if obj is None or isinstance(obj, str):'
p253
sI73
S'            return obj'
p254
sI74
S'        return obj.encode(charset, errors)'
p255
sI75
S''
sI76
S''
sI77
S'else:'
p256
sI78
S'    import pickle'
p257
ssg85
S"(obj=True, charset='utf8', errors='strict')"
p258
sg87
S'to_native'
p259
sasS'pyver'
p260
S'Python 2.7.9: /usr/bin/python (prefix: /usr)'
p261
sS'session'
p262
g59
(S's\x1f\x01\x00\x00<div><table><tr><td style="font-weight:bold;vertical-align:top;">aiScore</td><td style="vertical-align:top;">:</td><td><div>2</div></td></tr><tr><td style="font-weight:bold;vertical-align:top;">humanScore</td><td style="vertical-align:top;">:</td><td><div>1</div></td></tr></table></div>'
tRp263
sS'etype'
p264
S"<type 'exceptions.AttributeError'>"
p265
sS'date'
p266
S'Tue Mar 19 02:42:42 2019'
p267
sS'response'
p268
g59
(S'sS\x18\x00\x00<div><table><tr><td style="font-weight:bold;vertical-align:top;">body</td><td style="vertical-align:top;">:</td><td><div>&lt;cStringIO.StringO object at 0x7678df00&gt;</div></td></tr><tr><td style="font-weight:bold;vertical-align:top;">cookies</td><td style="vertical-align:top;">:</td><td><div><table><tr><td style="font-weight:bold;vertical-align:top;">session_id_elementartrumpf</td><td style="vertical-align:top;">:</td><td><div>192.168.0.5-d6347f0b-3f45-421a-a9bc-c3df72032233<table><tr><td style="font-weight:bold;vertical-align:top;">comment</td><td style="vertical-align:top;">:</td><td><div></div></td></tr><tr><td style="font-weight:bold;vertical-align:top;">domain</td><td style="vertical-align:top;">:</td><td><div></div></td></tr><tr><td style="font-weight:bold;vertical-align:top;">expires</td><td style="vertical-align:top;">:</td><td><div></div></td></tr><tr><td style="font-weight:bold;vertical-align:top;">httponly</td><td style="vertical-align:top;">:</td><td><div></div></td></tr><tr><td style="font-weight:bold;vertical-align:top;">max-age</td><td style="vertical-align:top;">:</td><td><div></div></td></tr><tr><td style="font-weight:bold;vertical-align:top;">path</td><td style="vertical-align:top;">:</td><td><div>/</div></td></tr><tr><td style="font-weight:bold;vertical-align:top;">samesite</td><td style="vertical-align:top;">:</td><td><div></div></td></tr><tr><td style="font-weight:bold;vertical-align:top;">secure</td><td style="vertical-align:top;">:</td><td><div></div></td></tr><tr><td style="font-weight:bold;vertical-align:top;">version</td><td style="vertical-align:top;">:</td><td><div></div></td></tr></table></div></td></tr></table></div></td></tr><tr><td style="font-weight:bold;vertical-align:top;">delimiters</td><td style="vertical-align:top;">:</td><td><div><table><tr><td><div>{{</div></td></tr><tr><td><div>}}</div></td></tr></table></div></td></tr><tr><td style="font-weight:bold;vertical-align:top;">files</td><td style="vertical-align:top;">:</td><td><div><table></table></div></td></tr><tr><td style="font-weight:bold;vertical-align:top;">flash</td><td style="vertical-align:top;">:</td><td><div></div></td></tr><tr><td style="font-weight:bold;vertical-align:top;">form_label_separator</td><td style="vertical-align:top;">:</td><td><div>: </div></td></tr><tr><td style="font-weight:bold;vertical-align:top;">formstyle</td><td style="vertical-align:top;">:</td><td><div>table3cols</div></td></tr><tr><td style="font-weight:bold;vertical-align:top;">generic_patterns</td><td style="vertical-align:top;">:</td><td><div><table><tr><td><div>*</div></td></tr></table></div></td></tr><tr><td style="font-weight:bold;vertical-align:top;">headers</td><td style="vertical-align:top;">:</td><td><div><table><tr><td style="font-weight:bold;vertical-align:top;">X-Powered-By</td><td style="vertical-align:top;">:</td><td><div>web2py</div></td></tr></table></div></td></tr><tr><td style="font-weight:bold;vertical-align:top;">menu</td><td style="vertical-align:top;">:</td><td><div><table></table></div></td></tr><tr><td style="font-weight:bold;vertical-align:top;">meta</td><td style="vertical-align:top;">:</td><td><div><table></table></div></td></tr><tr><td style="font-weight:bold;vertical-align:top;">models_to_run</td><td style="vertical-align:top;">:</td><td><div><table><tr><td><div>^\\w+\\.py$</div></td></tr><tr><td><div>^ElementarTrumpfControl/\\w+\\.py$</div></td></tr><tr><td><div>^ElementarTrumpfControl/kartenZiehen/\\w+\\.py$</div></td></tr></table></div></td></tr><tr><td style="font-weight:bold;vertical-align:top;">postprocessing</td><td style="vertical-align:top;">:</td><td><div><table></table></div></td></tr><tr><td style="font-weight:bold;vertical-align:top;">session_client</td><td style="vertical-align:top;">:</td><td><div>192.168.0.5</div></td></tr><tr><td style="font-weight:bold;vertical-align:top;">session_cookie_compression_level</td><td style="vertical-align:top;">:</td><td><div>None</div></td></tr><tr><td style="font-weight:bold;vertical-align:top;">session_cookie_expires</td><td style="vertical-align:top;">:</td><td><div>None</div></td></tr><tr><td style="font-weight:bold;vertical-align:top;">session_data_name</td><td style="vertical-align:top;">:</td><td><div>session_data_elementartrumpf</div></td></tr><tr><td style="font-weight:bold;vertical-align:top;">session_file</td><td style="vertical-align:top;">:</td><td><div>&lt;open file &#x27;/var/www/python/web2py/applications/ElementarTrumpf/sessions/0fa/1c5/192.168.0.5-d6347f0b-3f45-421a-a9bc-c3df72032233&#x27;, mode &#x27;rb+&#x27; at 0x6f37bde0&gt;</div></td></tr><tr><td style="font-weight:bold;vertical-align:top;">session_filename</td><td style="vertical-align:top;">:</td><td><div>/var/www/python/web2py/applications/ElementarTrumpf/sessions/192.168.0.5-d6347f0b-3f45-421a-a9bc-c3df72032233</div></td></tr><tr><td style="font-weight:bold;vertical-align:top;">session_hash</td><td style="vertical-align:top;">:</td><td><div>e2e6b415f1cc7e8e11d941912697201b</div></td></tr><tr><td style="font-weight:bold;vertical-align:top;">session_id</td><td style="vertical-align:top;">:</td><td><div>192.168.0.5-d6347f0b-3f45-421a-a9bc-c3df72032233</div></td></tr><tr><td style="font-weight:bold;vertical-align:top;">session_id_name</td><td style="vertical-align:top;">:</td><td><div>session_id_elementartrumpf</div></td></tr><tr><td style="font-weight:bold;vertical-align:top;">session_locked</td><td style="vertical-align:top;">:</td><td><div>True</div></td></tr><tr><td style="font-weight:bold;vertical-align:top;">session_masterapp</td><td style="vertical-align:top;">:</td><td><div>ElementarTrumpf</div></td></tr><tr><td style="font-weight:bold;vertical-align:top;">session_new</td><td style="vertical-align:top;">:</td><td><div>False</div></td></tr><tr><td style="font-weight:bold;vertical-align:top;">session_storage_type</td><td style="vertical-align:top;">:</td><td><div>file</div></td></tr><tr><td style="font-weight:bold;vertical-align:top;">status</td><td style="vertical-align:top;">:</td><td><div>200</div></td></tr><tr><td style="font-weight:bold;vertical-align:top;">view</td><td style="vertical-align:top;">:</td><td><div>ElementarTrumpfControl/kartenZiehen.html</div></td></tr></table></div>'
tRp269
sS'locals'
p270
(dp271
S'errors'
p272
S"'strict'"
p273
sS'obj'
p274
g147
sS'charset'
p275
S"'utf8'"
p276
sssS'traceback'
p277
S'Traceback (most recent call last):\n  File "/var/www/python/web2py/gluon/restricted.py", line 219, in restricted\n    exec(ccode, environment)\n  File "/var/www/python/web2py/applications/ElementarTrumpf/views/ElementarTrumpfControl/kartenZiehen.html", line 34, in <module>\n    </div>\n  File "/var/www/python/web2py/gluon/languages.py", line 428, in __len__\n    return len(str(self))\n  File "/var/www/python/web2py/gluon/languages.py", line 391, in __str__\n    self.T.translate(self.m, self.s))\n  File "/var/www/python/web2py/gluon/languages.py", line 995, in translate\n    lambda: self.get_t(message))\n  File "/var/www/python/web2py/gluon/languages.py", line 151, in get_from_cache\n    result = lang_dict.setdefault(val, fun())\n  File "/var/www/python/web2py/gluon/languages.py", line 995, in <lambda>\n    lambda: self.get_t(message))\n  File "/var/www/python/web2py/gluon/languages.py", line 810, in get_t\n    message = to_native(message, \'utf8\')\n  File "/var/www/python/web2py/gluon/_compat.py", line 74, in to_native\n    return obj.encode(charset, errors)\nAttributeError: \'bool\' object has no attribute \'encode\'\n'
p278
s.