(dp1
S'output'
p2
S"<type 'exceptions.ValueError'> need more than 1 value to unpack"
p3
sS'layer'
p4
S'/var/www/python/web2py/applications/ElementarTrumpf/controllers/ElementarTrumpfControl.py'
p5
sS'code'
p6
S'<code object <module> at 0x6f312800, file "/var/www/python/web2py/applications/ElementarTrumpf/controllers/ElementarTrumpfControl.py", line 2>'
p7
sS'snapshot'
p8
(dp9
sS'traceback'
p10
S'Traceback (most recent call last):\n  File "/var/www/python/web2py/gluon/restricted.py", line 219, in restricted\n    exec(ccode, environment)\n  File "/var/www/python/web2py/applications/ElementarTrumpf/controllers/ElementarTrumpfControl.py", line 31, in <module>\n  File "/var/www/python/web2py/gluon/globals.py", line 421, in <lambda>\n    self._caller = lambda f: f()\n  File "/var/www/python/web2py/applications/ElementarTrumpf/controllers/ElementarTrumpfControl.py", line 4, in index\n    humanScore, aiScore = tuple(request.args)\nValueError: need more than 1 value to unpack\n'
p11
s.