(dp1
S'output'
p2
S"<type 'exceptions.NameError'> name 'humanMonsterValue' is not defined"
p3
sS'layer'
p4
S'/var/www/python/web2py/applications/ElementarTrumpf/views/ElementarTrumpfControl/kartenZiehen.html'
p5
sS'code'
p6
S'response.write(\'\\xef\\xbb\\xbf<!DOCTYPE html>\\n<html lang="de">\\n\\t<head>\\n\\t  <meta http-equiv="content-type" content="text/html; charset=UTF-8" />\\n\\t  <title>Elementar Trumpf</title>\\n\\t  <link rel="stylesheet" href="/ElementarTrumpf/static/css/styleshit.css"></link>\\n\\t</head>\\n\\n\\t<body style="width: 800px">\\n\\t  <header id="header">\\n\\t\\t  <div style="height: 100px">\\n\\t\\t\\t  <div class="spieler" style="float:left;"><p>\', escape=False)\nresponse.write(session.humanScore)\nresponse.write(\'</p></div>\\n\\t\\t\\t  <div class="spieler" style="float:right;"><p style="float: right;">\', escape=False)\nresponse.write(session.aiScore)\nresponse.write(\'</p></div>\\n\\t\\t  </div>\\n\\t  </header>\\n\\t\\t<div id="arena" style="height: 400px; width:100%;"> \\n\\t\\t\\t<div id="k1" class="karte">\\n\\t\\t\\t\\t\', escape=False)\nif humanMonsterValue:\n    response.write(\'\\n\\t\\t\\t\\t<div style="">\\n\\t\\t\\t\\t</div>\\n\\t\\t\\t\\t<div class= "eigenschaften">\\n\\t\\t\\t\\t</div>\\n\\t\\t\\t\\t\', escape=False)\nelse:\n    response.write(\'\\n\\t\\t\\t\\t<div style="">\\n\\t\\t\\t\\t\\t<img src="/ElementarTrumpf/static/images/VK.gif"></img>\\n\\t\\t\\t\\t</div>\\n\\t\\t\\t\\t<div class= "eigenschaften"></div>\\n\\t\\t\\t\\t\', escape=False)\n    pass\nresponse.write(\'\\n\\t\\t\\t</div>\\n\\n\\t</body>\\n</html>\\n\', escape=False)'
p7
sS'snapshot'
p8
(dp9
S'exception'
p10
(dp11
S'__getslice__'
p12
S"<method-wrapper '__getslice__' of exceptions.NameError object>"
p13
sS'__str__'
p14
S"<method-wrapper '__str__' of exceptions.NameError object>"
p15
sS'__reduce__'
p16
S'<built-in method __reduce__ of exceptions.NameError object>'
p17
sS'__dict__'
p18
S'{}'
p19
sS'message'
p20
S'"name \'humanMonsterValue\' is not defined"'
p21
sS'__sizeof__'
p22
S'<built-in method __sizeof__ of exceptions.NameError object>'
p23
sS'__init__'
p24
S"<method-wrapper '__init__' of exceptions.NameError object>"
p25
sS'__setattr__'
p26
S"<method-wrapper '__setattr__' of exceptions.NameError object>"
p27
sS'__reduce_ex__'
p28
S'<built-in method __reduce_ex__ of exceptions.NameError object>'
p29
sS'__new__'
p30
S'<built-in method __new__ of type object>'
p31
sS'__format__'
p32
S'<built-in method __format__ of exceptions.NameError object>'
p33
sS'__class__'
p34
S"<type 'exceptions.NameError'>"
p35
sS'__doc__'
p36
S"'Name not found globally.'"
p37
sS'__getitem__'
p38
S"<method-wrapper '__getitem__' of exceptions.NameError object>"
p39
sS'__setstate__'
p40
S'<built-in method __setstate__ of exceptions.NameError object>'
p41
sS'__getattribute__'
p42
S"<method-wrapper '__getattribute__' of exceptions.NameError object>"
p43
sS'args'
p44
S'("name \'humanMonsterValue\' is not defined",)'
p45
sS'__subclasshook__'
p46
S'<built-in method __subclasshook__ of type object>'
p47
sS'__unicode__'
p48
S'<built-in method __unicode__ of exceptions.NameError object>'
p49
sS'__delattr__'
p50
S"<method-wrapper '__delattr__' of exceptions.NameError object>"
p51
sS'__repr__'
p52
S"<method-wrapper '__repr__' of exceptions.NameError object>"
p53
sS'__hash__'
p54
S"<method-wrapper '__hash__' of exceptions.NameError object>"
p55
ssS'evalue'
p56
S"name 'humanMonsterValue' is not defined"
p57
sS'request'
p58
cgluon.html
XML_unpickle
p59
(S's\xc4^\x00\x00<div><table><tr><td style="font-weight:bold;vertical-align:top;">ajax</td><td style="vertical-align:top;">:</td><td><div>False</div></td></tr><tr><td style="font-weight:bold;vertical-align:top;">application</td><td style="vertical-align:top;">:</td><td><div>ElementarTrumpf</div></td></tr><tr><td style="font-weight:bold;vertical-align:top;">args</td><td style="vertical-align:top;">:</td><td><div><table></table></div></td></tr><tr><td style="font-weight:bold;vertical-align:top;">cid</td><td style="vertical-align:top;">:</td><td><div>None</div></td></tr><tr><td style="font-weight:bold;vertical-align:top;">client</td><td style="vertical-align:top;">:</td><td><div>192.168.0.5</div></td></tr><tr><td style="font-weight:bold;vertical-align:top;">controller</td><td style="vertical-align:top;">:</td><td><div>ElementarTrumpfControl</div></td></tr><tr><td style="font-weight:bold;vertical-align:top;">cookies</td><td style="vertical-align:top;">:</td><td><div><table><tr><td style="font-weight:bold;vertical-align:top;">session_id_admin</td><td style="vertical-align:top;">:</td><td><div>192.168.0.5-4f7a94fc-c187-46d3-ae48-250817e1f088<table><tr><td style="font-weight:bold;vertical-align:top;">comment</td><td style="vertical-align:top;">:</td><td><div></div></td></tr><tr><td style="font-weight:bold;vertical-align:top;">domain</td><td style="vertical-align:top;">:</td><td><div></div></td></tr><tr><td style="font-weight:bold;vertical-align:top;">expires</td><td style="vertical-align:top;">:</td><td><div></div></td></tr><tr><td style="font-weight:bold;vertical-align:top;">httponly</td><td style="vertical-align:top;">:</td><td><div></div></td></tr><tr><td style="font-weight:bold;vertical-align:top;">max-age</td><td style="vertical-align:top;">:</td><td><div></div></td></tr><tr><td style="font-weight:bold;vertical-align:top;">path</td><td style="vertical-align:top;">:</td><td><div></div></td></tr><tr><td style="font-weight:bold;vertical-align:top;">samesite</td><td style="vertical-align:top;">:</td><td><div></div></td></tr><tr><td style="font-weight:bold;vertical-align:top;">secure</td><td style="vertical-align:top;">:</td><td><div></div></td></tr><tr><td style="font-weight:bold;vertical-align:top;">version</td><td style="vertical-align:top;">:</td><td><div></div></td></tr></table></div></td></tr><tr><td style="font-weight:bold;vertical-align:top;">session_id_elementartrumpf</td><td style="vertical-align:top;">:</td><td><div>192.168.0.5-d6347f0b-3f45-421a-a9bc-c3df72032233<table><tr><td style="font-weight:bold;vertical-align:top;">comment</td><td style="vertical-align:top;">:</td><td><div></div></td></tr><tr><td style="font-weight:bold;vertical-align:top;">domain</td><td style="vertical-align:top;">:</td><td><div></div></td></tr><tr><td style="font-weight:bold;vertical-align:top;">expires</td><td style="vertical-align:top;">:</td><td><div></div></td></tr><tr><td style="font-weight:bold;vertical-align:top;">httponly</td><td style="vertical-align:top;">:</td><td><div></div></td></tr><tr><td style="font-weight:bold;vertical-align:top;">max-age</td><td style="vertical-align:top;">:</td><td><div></div></td></tr><tr><td style="font-weight:bold;vertical-align:top;">path</td><td style="vertical-align:top;">:</td><td><div></div></td></tr><tr><td style="font-weight:bold;vertical-align:top;">samesite</td><td style="vertical-align:top;">:</td><td><div></div></td></tr><tr><td style="font-weight:bold;vertical-align:top;">secure</td><td style="vertical-align:top;">:</td><td><div></div></td></tr><tr><td style="font-weight:bold;vertical-align:top;">version</td><td style="vertical-align:top;">:</td><td><div></div></td></tr></table></div></td></tr><tr><td style="font-weight:bold;vertical-align:top;">session_id_welcome</td><td style="vertical-align:top;">:</td><td><div>192.168.0.5-d90e60e0-4e82-44ae-9e4d-392d7d78b13f<table><tr><td style="font-weight:bold;vertical-align:top;">comment</td><td style="vertical-align:top;">:</td><td><div></div></td></tr><tr><td style="font-weight:bold;vertical-align:top;">domain</td><td style="vertical-align:top;">:</td><td><div></div></td></tr><tr><td style="font-weight:bold;vertical-align:top;">expires</td><td style="vertical-align:top;">:</td><td><div></div></td></tr><tr><td style="font-weight:bold;vertical-align:top;">httponly</td><td style="vertical-align:top;">:</td><td><div></div></td></tr><tr><td style="font-weight:bold;vertical-align:top;">max-age</td><td style="vertical-align:top;">:</td><td><div></div></td></tr><tr><td style="font-weight:bold;vertical-align:top;">path</td><td style="vertical-align:top;">:</td><td><div></div></td></tr><tr><td style="font-weight:bold;vertical-align:top;">samesite</td><td style="vertical-align:top;">:</td><td><div></div></td></tr><tr><td style="font-weight:bold;vertical-align:top;">secure</td><td style="vertical-align:top;">:</td><td><div></div></td></tr><tr><td style="font-weight:bold;vertical-align:top;">version</td><td style="vertical-align:top;">:</td><td><div></div></td></tr></table></div></td></tr></table></div></td></tr><tr><td style="font-weight:bold;vertical-align:top;">env</td><td style="vertical-align:top;">:</td><td><div><table><tr><td style="font-weight:bold;vertical-align:top;">HTTP_ACCEPT</td><td style="vertical-align:top;">:</td><td><div>text/html,application/xhtml+xml,application/xml;q=0.9,image/webp,*/*;q=0.8</div></td></tr><tr><td style="font-weight:bold;vertical-align:top;">HTTP_ACCEPT_ENCODING</td><td style="vertical-align:top;">:</td><td><div>gzip, deflate</div></td></tr><tr><td style="font-weight:bold;vertical-align:top;">HTTP_ACCEPT_LANGUAGE</td><td style="vertical-align:top;">:</td><td><div>en-US,en;q=0.5</div></td></tr><tr><td style="font-weight:bold;vertical-align:top;">HTTP_CACHE_CONTROL</td><td style="vertical-align:top;">:</td><td><div>no-cache</div></td></tr><tr><td style="font-weight:bold;vertical-align:top;">HTTP_CONNECTION</td><td style="vertical-align:top;">:</td><td><div>keep-alive</div></td></tr><tr><td style="font-weight:bold;vertical-align:top;">HTTP_COOKIE</td><td style="vertical-align:top;">:</td><td><div>session_id_welcome=192.168.0.5-d90e60e0-4e82-44ae-9e4d-392d7d78b13f; session_id_elementartrumpf=192.168.0.5-d6347f0b-3f45-421a-a9bc-c3df72032233; session_id_admin=192.168.0.5-4f7a94fc-c187-46d3-ae48-250817e1f088</div></td></tr><tr><td style="font-weight:bold;vertical-align:top;">HTTP_HOST</td><td style="vertical-align:top;">:</td><td><div>192.168.0.11:8000</div></td></tr><tr><td style="font-weight:bold;vertical-align:top;">HTTP_PRAGMA</td><td style="vertical-align:top;">:</td><td><div>no-cache</div></td></tr><tr><td style="font-weight:bold;vertical-align:top;">HTTP_UPGRADE_INSECURE_REQUESTS</td><td style="vertical-align:top;">:</td><td><div>1</div></td></tr><tr><td style="font-weight:bold;vertical-align:top;">HTTP_USER_AGENT</td><td style="vertical-align:top;">:</td><td><div>Mozilla/5.0 (Windows NT 6.1; Win64; x64; rv:65.0) Gecko/20100101 Firefox/65.0</div></td></tr><tr><td style="font-weight:bold;vertical-align:top;">PATH_INFO</td><td style="vertical-align:top;">:</td><td><div>/kartenZiehen</div></td></tr><tr><td style="font-weight:bold;vertical-align:top;">QUERY_STRING</td><td style="vertical-align:top;">:</td><td><div></div></td></tr><tr><td style="font-weight:bold;vertical-align:top;">REMOTE_ADDR</td><td style="vertical-align:top;">:</td><td><div>192.168.0.5</div></td></tr><tr><td style="font-weight:bold;vertical-align:top;">REMOTE_PORT</td><td style="vertical-align:top;">:</td><td><div>53515</div></td></tr><tr><td style="font-weight:bold;vertical-align:top;">REQUEST_METHOD</td><td style="vertical-align:top;">:</td><td><div>GET</div></td></tr><tr><td style="font-weight:bold;vertical-align:top;">SCRIPT_NAME</td><td style="vertical-align:top;">:</td><td><div></div></td></tr><tr><td style="font-weight:bold;vertical-align:top;">SERVER_NAME</td><td style="vertical-align:top;">:</td><td><div>raspberrypi</div></td></tr><tr><td style="font-weight:bold;vertical-align:top;">SERVER_PORT</td><td style="vertical-align:top;">:</td><td><div>8000</div></td></tr><tr><td style="font-weight:bold;vertical-align:top;">SERVER_PROTOCOL</td><td style="vertical-align:top;">:</td><td><div>HTTP/1.1</div></td></tr><tr><td style="font-weight:bold;vertical-align:top;">SERVER_SOFTWARE</td><td style="vertical-align:top;">:</td><td><div>Rocket 1.2.6</div></td></tr><tr><td style="font-weight:bold;vertical-align:top;">app_folders</td><td style="vertical-align:top;">:</td><td><div>set([&#x27;/var/www/python/web2py/applications/ElementarTrumpf/&#x27;, &#x27;/var/www/python/web2py/applications/admin/&#x27;, &#x27;/var/www/python/web2py/applications/welcome/&#x27;])</div></td></tr><tr><td style="font-weight:bold;vertical-align:top;">applications_parent</td><td style="vertical-align:top;">:</td><td><div>/var/www/python/web2py</div></td></tr><tr><td style="font-weight:bold;vertical-align:top;">cmd_args</td><td style="vertical-align:top;">:</td><td><div><table></table></div></td></tr><tr><td style="font-weight:bold;vertical-align:top;">cmd_options</td><td style="vertical-align:top;">:</td><td><div>&lt;Values at 0x76034670: {&#x27;verbose&#x27;: False, &#x27;ip&#x27;: &#x27;127.0.0.1&#x27;, &#x27;debuglevel&#x27;: 30, &#x27;with_scheduler&#x27;: False, &#x27;shutdown_timeout&#x27;: 5, &#x27;taskbar&#x27;: False, &#x27;with_coverage&#x27;: False, &#x27;pid_filename&#x27;: &#x27;httpserver.pid&#x27;, &#x27;maxthreads&#x27;: None, &#x27;softcron&#x27;: False, &#x27;server_name&#x27;: &#x27;raspberrypi&#x27;, &#x27;bpython&#x27;: False, &#x27;nogui&#x27;: False, &#x27;port&#x27;: 8000, &#x27;print_errors&#x27;: False, &#x27;extcron&#x27;: False, &#x27;runcron&#x27;: False, &#x27;run_system_tests&#x27;: False, &#x27;test&#x27;: None, &#x27;folder&#x27;: &#x27;/var/www/python/web2py&#x27;, &#x27;config&#x27;: &#x27;options.py&#x27;, &#x27;minthreads&#x27;: None, &#x27;shell&#x27;: None, &#x27;run&#x27;: &#x27;&#x27;, &#x27;log_filename&#x27;: &#x27;httpserver.log&#x27;, &#x27;profiler_dir&#x27;: None, &#x27;args&#x27;: [&#x27;&#x27;], &#x27;socket_timeout&#x27;: 5, &#x27;ssl_ca_certificate&#x27;: None, &#x27;scheduler&#x27;: None, &#x27;interfaces&#x27;: None, &#x27;ssl_private_key&#x27;: &#x27;&#x27;, &#x27;gae&#x27;: None, &#x27;password&#x27;: &#x27;******&#x27;, &#x27;request_queue_size&#x27;: 5, &#x27;ssl_certificate&#x27;: &#x27;&#x27;, &#x27;cronjob&#x27;: False, &#x27;numthreads&#x27;: None, &#x27;quiet&#x27;: False, &#x27;import_models&#x27;: False, &#x27;timeout&#x27;: 10, &#x27;plain&#x27;: False, &#x27;nobanner&#x27;: False}&gt;</div></td></tr><tr><td style="font-weight:bold;vertical-align:top;">db_sessions</td><td style="vertical-align:top;">:</td><td><div>set([])</div></td></tr><tr><td style="font-weight:bold;vertical-align:top;">debugging</td><td style="vertical-align:top;">:</td><td><div>False</div></td></tr><tr><td style="font-weight:bold;vertical-align:top;">gluon_parent</td><td style="vertical-align:top;">:</td><td><div>/var/www/python/web2py</div></td></tr><tr><td style="font-weight:bold;vertical-align:top;">http_accept</td><td style="vertical-align:top;">:</td><td><div>text/html,application/xhtml+xml,application/xml;q=0.9,image/webp,*/*;q=0.8</div></td></tr><tr><td style="font-weight:bold;vertical-align:top;">http_accept_encoding</td><td style="vertical-align:top;">:</td><td><div>gzip, deflate</div></td></tr><tr><td style="font-weight:bold;vertical-align:top;">http_accept_language</td><td style="vertical-align:top;">:</td><td><div>en-US,en;q=0.5</div></td></tr><tr><td style="font-weight:bold;vertical-align:top;">http_cache_control</td><td style="vertical-align:top;">:</td><td><div>no-cache</div></td></tr><tr><td style="font-weight:bold;vertical-align:top;">http_connection</td><td style="vertical-align:top;">:</td><td><div>keep-alive</div></td></tr><tr><td style="font-weight:bold;vertical-align:top;">http_cookie</td><td style="vertical-align:top;">:</td><td><div>session_id_welcome=192.168.0.5-d90e60e0-4e82-44ae-9e4d-392d7d78b13f; session_id_elementartrumpf=192.168.0.5-d6347f0b-3f45-421a-a9bc-c3df72032233; session_id_admin=192.168.0.5-4f7a94fc-c187-46d3-ae48-250817e1f088</div></td></tr><tr><td style="font-weight:bold;vertical-align:top;">http_host</td><td style="vertical-align:top;">:</td><td><div>192.168.0.11:8000</div></td></tr><tr><td style="font-weight:bold;vertical-align:top;">http_pragma</td><td style="vertical-align:top;">:</td><td><div>no-cache</div></td></tr><tr><td style="font-weight:bold;vertical-align:top;">http_upgrade_insecure_requests</td><td style="vertical-align:top;">:</td><td><div>1</div></td></tr><tr><td style="font-weight:bold;vertical-align:top;">http_user_agent</td><td style="vertical-align:top;">:</td><td><div>Mozilla/5.0 (Windows NT 6.1; Win64; x64; rv:65.0) Gecko/20100101 Firefox/65.0</div></td></tr><tr><td style="font-weight:bold;vertical-align:top;">is_jython</td><td style="vertical-align:top;">:</td><td><div>False</div></td></tr><tr><td style="font-weight:bold;vertical-align:top;">is_py2</td><td style="vertical-align:top;">:</td><td><div>True</div></td></tr><tr><td style="font-weight:bold;vertical-align:top;">is_pypy</td><td style="vertical-align:top;">:</td><td><div>False</div></td></tr><tr><td style="font-weight:bold;vertical-align:top;">is_source</td><td style="vertical-align:top;">:</td><td><div>True</div></td></tr><tr><td style="font-weight:bold;vertical-align:top;">local_hosts</td><td style="vertical-align:top;">:</td><td><div><table><tr><td><div>raspberrypi</div></td></tr><tr><td><div>::1</div></td></tr><tr><td><div>127.0.1.1</div></td></tr><tr><td><div>::ffff:127.0.0.1</div></td></tr><tr><td><div>127.0.0.1</div></td></tr></table></div></td></tr><tr><td style="font-weight:bold;vertical-align:top;">path_info</td><td style="vertical-align:top;">:</td><td><div>/kartenZiehen</div></td></tr><tr><td style="font-weight:bold;vertical-align:top;">query_string</td><td style="vertical-align:top;">:</td><td><div></div></td></tr><tr><td style="font-weight:bold;vertical-align:top;">remote_addr</td><td style="vertical-align:top;">:</td><td><div>192.168.0.5</div></td></tr><tr><td style="font-weight:bold;vertical-align:top;">remote_port</td><td style="vertical-align:top;">:</td><td><div>53515</div></td></tr><tr><td style="font-weight:bold;vertical-align:top;">request_method</td><td style="vertical-align:top;">:</td><td><div>GET</div></td></tr><tr><td style="font-weight:bold;vertical-align:top;">request_uri</td><td style="vertical-align:top;">:</td><td><div>/ElementarTrumpf/ElementarTrumpfControl/kartenZiehen</div></td></tr><tr><td style="font-weight:bold;vertical-align:top;">script_name</td><td style="vertical-align:top;">:</td><td><div></div></td></tr><tr><td style="font-weight:bold;vertical-align:top;">server_name</td><td style="vertical-align:top;">:</td><td><div>raspberrypi</div></td></tr><tr><td style="font-weight:bold;vertical-align:top;">server_port</td><td style="vertical-align:top;">:</td><td><div>8000</div></td></tr><tr><td style="font-weight:bold;vertical-align:top;">server_protocol</td><td style="vertical-align:top;">:</td><td><div>HTTP/1.1</div></td></tr><tr><td style="font-weight:bold;vertical-align:top;">server_software</td><td style="vertical-align:top;">:</td><td><div>Rocket 1.2.6</div></td></tr><tr><td style="font-weight:bold;vertical-align:top;">web2py_original_uri</td><td style="vertical-align:top;">:</td><td><div>/kartenZiehen</div></td></tr><tr><td style="font-weight:bold;vertical-align:top;">web2py_path</td><td style="vertical-align:top;">:</td><td><div>/var/www/python/web2py</div></td></tr><tr><td style="font-weight:bold;vertical-align:top;">web2py_version</td><td style="vertical-align:top;">:</td><td><div>2.17.2-stable+timestamp.2018.10.06.18.54.02</div></td></tr><tr><td style="font-weight:bold;vertical-align:top;">wsgi.errors</td><td style="vertical-align:top;">:</td><td><div>&lt;open file &#x27;&lt;stderr&gt;&#x27;, mode &#x27;w&#x27; at 0x76c970d0&gt;</div></td></tr><tr><td style="font-weight:bold;vertical-align:top;">wsgi.file_wrapper</td><td style="vertical-align:top;">:</td><td><div>&lt;class wsgiref.util.FileWrapper at 0x760a91b8&gt;</div></td></tr><tr><td style="font-weight:bold;vertical-align:top;">wsgi.input</td><td style="vertical-align:top;">:</td><td><div>&lt;socket._fileobject object at 0x76792c30&gt;</div></td></tr><tr><td style="font-weight:bold;vertical-align:top;">wsgi.multiprocess</td><td style="vertical-align:top;">:</td><td><div>False</div></td></tr><tr><td style="font-weight:bold;vertical-align:top;">wsgi.multithread</td><td style="vertical-align:top;">:</td><td><div>True</div></td></tr><tr><td style="font-weight:bold;vertical-align:top;">wsgi.run_once</td><td style="vertical-align:top;">:</td><td><div>False</div></td></tr><tr><td style="font-weight:bold;vertical-align:top;">wsgi.url_scheme</td><td style="vertical-align:top;">:</td><td><div>http</div></td></tr><tr><td style="font-weight:bold;vertical-align:top;">wsgi.version</td><td style="vertical-align:top;">:</td><td><div><table><tr><td><div>1</div></td></tr><tr><td><div>0</div></td></tr></table></div></td></tr><tr><td style="font-weight:bold;vertical-align:top;">wsgi_errors</td><td style="vertical-align:top;">:</td><td><div>&lt;open file &#x27;&lt;stderr&gt;&#x27;, mode &#x27;w&#x27; at 0x76c970d0&gt;</div></td></tr><tr><td style="font-weight:bold;vertical-align:top;">wsgi_file_wrapper</td><td style="vertical-align:top;">:</td><td><div>&lt;class wsgiref.util.FileWrapper at 0x760a91b8&gt;</div></td></tr><tr><td style="font-weight:bold;vertical-align:top;">wsgi_input</td><td style="vertical-align:top;">:</td><td><div>&lt;socket._fileobject object at 0x76792c30&gt;</div></td></tr><tr><td style="font-weight:bold;vertical-align:top;">wsgi_multiprocess</td><td style="vertical-align:top;">:</td><td><div>False</div></td></tr><tr><td style="font-weight:bold;vertical-align:top;">wsgi_multithread</td><td style="vertical-align:top;">:</td><td><div>True</div></td></tr><tr><td style="font-weight:bold;vertical-align:top;">wsgi_run_once</td><td style="vertical-align:top;">:</td><td><div>False</div></td></tr><tr><td style="font-weight:bold;vertical-align:top;">wsgi_url_scheme</td><td style="vertical-align:top;">:</td><td><div>http</div></td></tr><tr><td style="font-weight:bold;vertical-align:top;">wsgi_version</td><td style="vertical-align:top;">:</td><td><div><table><tr><td><div>1</div></td></tr><tr><td><div>0</div></td></tr></table></div></td></tr></table></div></td></tr><tr><td style="font-weight:bold;vertical-align:top;">extension</td><td style="vertical-align:top;">:</td><td><div>html</div></td></tr><tr><td style="font-weight:bold;vertical-align:top;">folder</td><td style="vertical-align:top;">:</td><td><div>/var/www/python/web2py/applications/ElementarTrumpf/</div></td></tr><tr><td style="font-weight:bold;vertical-align:top;">function</td><td style="vertical-align:top;">:</td><td><div>kartenZiehen</div></td></tr><tr><td style="font-weight:bold;vertical-align:top;">global_settings</td><td style="vertical-align:top;">:</td><td><div><table><tr><td style="font-weight:bold;vertical-align:top;">app_folders</td><td style="vertical-align:top;">:</td><td><div>set([&#x27;/var/www/python/web2py/applications/ElementarTrumpf/&#x27;, &#x27;/var/www/python/web2py/applications/admin/&#x27;, &#x27;/var/www/python/web2py/applications/welcome/&#x27;])</div></td></tr><tr><td style="font-weight:bold;vertical-align:top;">applications_parent</td><td style="vertical-align:top;">:</td><td><div>/var/www/python/web2py</div></td></tr><tr><td style="font-weight:bold;vertical-align:top;">cmd_args</td><td style="vertical-align:top;">:</td><td><div><table></table></div></td></tr><tr><td style="font-weight:bold;vertical-align:top;">cmd_options</td><td style="vertical-align:top;">:</td><td><div>&lt;Values at 0x76034670: {&#x27;verbose&#x27;: False, &#x27;ip&#x27;: &#x27;127.0.0.1&#x27;, &#x27;debuglevel&#x27;: 30, &#x27;with_scheduler&#x27;: False, &#x27;shutdown_timeout&#x27;: 5, &#x27;taskbar&#x27;: False, &#x27;with_coverage&#x27;: False, &#x27;pid_filename&#x27;: &#x27;httpserver.pid&#x27;, &#x27;maxthreads&#x27;: None, &#x27;softcron&#x27;: False, &#x27;server_name&#x27;: &#x27;raspberrypi&#x27;, &#x27;bpython&#x27;: False, &#x27;nogui&#x27;: False, &#x27;port&#x27;: 8000, &#x27;print_errors&#x27;: False, &#x27;extcron&#x27;: False, &#x27;runcron&#x27;: False, &#x27;run_system_tests&#x27;: False, &#x27;test&#x27;: None, &#x27;folder&#x27;: &#x27;/var/www/python/web2py&#x27;, &#x27;config&#x27;: &#x27;options.py&#x27;, &#x27;minthreads&#x27;: None, &#x27;shell&#x27;: None, &#x27;run&#x27;: &#x27;&#x27;, &#x27;log_filename&#x27;: &#x27;httpserver.log&#x27;, &#x27;profiler_dir&#x27;: None, &#x27;args&#x27;: [&#x27;&#x27;], &#x27;socket_timeout&#x27;: 5, &#x27;ssl_ca_certificate&#x27;: None, &#x27;scheduler&#x27;: None, &#x27;interfaces&#x27;: None, &#x27;ssl_private_key&#x27;: &#x27;&#x27;, &#x27;gae&#x27;: None, &#x27;password&#x27;: &#x27;******&#x27;, &#x27;request_queue_size&#x27;: 5, &#x27;ssl_certificate&#x27;: &#x27;&#x27;, &#x27;cronjob&#x27;: False, &#x27;numthreads&#x27;: None, &#x27;quiet&#x27;: False, &#x27;import_models&#x27;: False, &#x27;timeout&#x27;: 10, &#x27;plain&#x27;: False, &#x27;nobanner&#x27;: False}&gt;</div></td></tr><tr><td style="font-weight:bold;vertical-align:top;">db_sessions</td><td style="vertical-align:top;">:</td><td><div>set([])</div></td></tr><tr><td style="font-weight:bold;vertical-align:top;">debugging</td><td style="vertical-align:top;">:</td><td><div>False</div></td></tr><tr><td style="font-weight:bold;vertical-align:top;">gluon_parent</td><td style="vertical-align:top;">:</td><td><div>/var/www/python/web2py</div></td></tr><tr><td style="font-weight:bold;vertical-align:top;">is_jython</td><td style="vertical-align:top;">:</td><td><div>False</div></td></tr><tr><td style="font-weight:bold;vertical-align:top;">is_py2</td><td style="vertical-align:top;">:</td><td><div>True</div></td></tr><tr><td style="font-weight:bold;vertical-align:top;">is_pypy</td><td style="vertical-align:top;">:</td><td><div>False</div></td></tr><tr><td style="font-weight:bold;vertical-align:top;">is_source</td><td style="vertical-align:top;">:</td><td><div>True</div></td></tr><tr><td style="font-weight:bold;vertical-align:top;">local_hosts</td><td style="vertical-align:top;">:</td><td><div><table><tr><td><div>raspberrypi</div></td></tr><tr><td><div>::1</div></td></tr><tr><td><div>127.0.1.1</div></td></tr><tr><td><div>::ffff:127.0.0.1</div></td></tr><tr><td><div>127.0.0.1</div></td></tr></table></div></td></tr><tr><td style="font-weight:bold;vertical-align:top;">web2py_version</td><td style="vertical-align:top;">:</td><td><div>2.17.2-stable+timestamp.2018.10.06.18.54.02</div></td></tr></table></div></td></tr><tr><td style="font-weight:bold;vertical-align:top;">is_https</td><td style="vertical-align:top;">:</td><td><div>False</div></td></tr><tr><td style="font-weight:bold;vertical-align:top;">is_local</td><td style="vertical-align:top;">:</td><td><div>False</div></td></tr><tr><td style="font-weight:bold;vertical-align:top;">is_restful</td><td style="vertical-align:top;">:</td><td><div>False</div></td></tr><tr><td style="font-weight:bold;vertical-align:top;">is_scheduler</td><td style="vertical-align:top;">:</td><td><div>False</div></td></tr><tr><td style="font-weight:bold;vertical-align:top;">is_shell</td><td style="vertical-align:top;">:</td><td><div>False</div></td></tr><tr><td style="font-weight:bold;vertical-align:top;">method</td><td style="vertical-align:top;">:</td><td><div>GET</div></td></tr><tr><td style="font-weight:bold;vertical-align:top;">now</td><td style="vertical-align:top;">:</td><td><div>datetime.datetime(2019, 3, 19, 2, 37, 49, 533366)</div></td></tr><tr><td style="font-weight:bold;vertical-align:top;">url</td><td style="vertical-align:top;">:</td><td><div>/kartenZiehen</div></td></tr><tr><td style="font-weight:bold;vertical-align:top;">utcnow</td><td style="vertical-align:top;">:</td><td><div>datetime.datetime(2019, 3, 19, 2, 37, 49, 533438)</div></td></tr><tr><td style="font-weight:bold;vertical-align:top;">wsgi</td><td style="vertical-align:top;">:</td><td><div>&lt;gluon.main.LazyWSGI object at 0x6ef00a10&gt;</div></td></tr></table></div>'
tRp60
sS'frames'
p61
(lp62
(dp63
S'file'
p64
S'/var/www/python/web2py/gluon/restricted.py'
p65
sS'dump'
p66
(dp67
S'environment'
p68
S"{'A': <class 'gluon.html.A'>, 'ANY_OF': <class 'gluon.validators.ANY_OF'>, 'ASSIGNJS': <function ASSIGNJS>, 'B': <class 'gluon.html.B'>, 'BEAUTIFY': <class 'gluon.html.BEAUTIFY'>, 'BODY': <class 'gluon.html.BODY'>, 'BR': <class 'gluon.html.BR'>, 'BUTTON': <class 'gluon.html.BUTTON'>, 'CAT': <class 'gluon.html.CAT'>, 'CENTER': <class 'gluon.html.CENTER'>, ...}"
p69
sS'ccode'
p70
S'<code object <module> at 0x7676ead0, file "/var/...lementarTrumpfControl/kartenZiehen.html", line 1>'
p71
ssS'lnum'
p72
I219
sS'lines'
p73
(dp74
I214
S'    if environment is None:'
p75
sI215
S'        environment = {}'
p76
sI216
S"    environment['__file__'] = layer"
p77
sI217
S"    environment['__name__'] = '__restricted__'"
p78
sI218
S'    try:'
p79
sI219
S'        exec(ccode, environment)'
p80
sI220
S'    except HTTP:'
p81
sI221
S'        raise'
p82
sI222
S'    except RestrictedError:'
p83
sI223
S'        # do not encapsulate (obfuscate) the original RestrictedError'
p84
ssS'call'
p85
S'(ccode=<code object <module> at 0x7676ead0, file "/var/...lementarTrumpfControl/kartenZiehen.html", line 1>, environment={\'A\': <class \'gluon.html.A\'>, \'ANY_OF\': <class \'gluon.validators.ANY_OF\'>, \'ASSIGNJS\': <function ASSIGNJS>, \'B\': <class \'gluon.html.B\'>, \'BEAUTIFY\': <class \'gluon.html.BEAUTIFY\'>, \'BODY\': <class \'gluon.html.BODY\'>, \'BR\': <class \'gluon.html.BR\'>, \'BUTTON\': <class \'gluon.html.BUTTON\'>, \'CAT\': <class \'gluon.html.CAT\'>, \'CENTER\': <class \'gluon.html.CENTER\'>, ...}, layer=\'/var/www/python/web2py/applications/ElementarTrumpf/views/ElementarTrumpfControl/kartenZiehen.html\', scode=r"response.write(\'\\xef\\xbb\\xbf<!DOCTYPE html>\\n<ht...t\\t</div>\\n\\n\\t</body>\\n</html>\\n\', escape=False)")'
p86
sS'func'
p87
S'restricted'
p88
sa(dp89
g64
S'/var/www/python/web2py/applications/ElementarTrumpf/views/ElementarTrumpfControl/kartenZiehen.html'
p90
sg66
(dp91
S'href'
p92
S'undefined'
p93
sS'link'
p94
g93
sS'rel'
p95
g93
ssg72
I6
sg73
(dp96
I1
S'response.write(\'\\xef\\xbb\\xbf<!DOCTYPE html>\\n<html lang="de">\\n\\t<head>\\n\\t  <meta http-equiv="content-type" content="text/html; charset=UTF-8" />\\n\\t  <title>Elementar Trumpf</title>\\n\\t  <link rel="stylesheet" href="/ElementarTrumpf/static/css/styleshit.css"></link>\\n\\t</head>\\n\\n\\t<body style="width: 800px">\\n\\t  <header id="header">\\n\\t\\t  <div style="height: 100px">\\n\\t\\t\\t  <div class="spieler" style="float:left;"><p>\', escape=False)'
p97
sI2
S'response.write(session.humanScore)'
p98
sI3
S'response.write(\'</p></div>\\n\\t\\t\\t  <div class="spieler" style="float:right;"><p style="float: right;">\', escape=False)'
p99
sI4
S'response.write(session.aiScore)'
p100
sI5
S'response.write(\'</p></div>\\n\\t\\t  </div>\\n\\t  </header>\\n\\t\\t<div id="arena" style="height: 400px; width:100%;"> \\n\\t\\t\\t<div id="k1" class="karte">\\n\\t\\t\\t\\t\', escape=False)'
p101
sI6
S'if humanMonsterValue:'
p102
sI7
S'    response.write(\'\\n\\t\\t\\t\\t<div style="">\\n\\t\\t\\t\\t</div>\\n\\t\\t\\t\\t<div class= "eigenschaften">\\n\\t\\t\\t\\t</div>\\n\\t\\t\\t\\t\', escape=False)'
p103
sI8
S'else:'
p104
sI9
S'    response.write(\'\\n\\t\\t\\t\\t<div style="">\\n\\t\\t\\t\\t\\t<img src="/ElementarTrumpf/static/images/VK.gif"></img>\\n\\t\\t\\t\\t</div>\\n\\t\\t\\t\\t<div class= "eigenschaften"></div>\\n\\t\\t\\t\\t\', escape=False)'
p105
sI10
S'    pass'
p106
sI11
S"response.write('\\n\\t\\t\\t</div>\\n\\n\\t</body>\\n</html>\\n', escape=False)"
p107
ssg85
S'()'
p108
sg87
S'<module>'
p109
sasS'pyver'
p110
S'Python 2.7.9: /usr/bin/python (prefix: /usr)'
p111
sS'session'
p112
g59
(S's\x1f\x01\x00\x00<div><table><tr><td style="font-weight:bold;vertical-align:top;">aiScore</td><td style="vertical-align:top;">:</td><td><div>0</div></td></tr><tr><td style="font-weight:bold;vertical-align:top;">humanScore</td><td style="vertical-align:top;">:</td><td><div>0</div></td></tr></table></div>'
tRp113
sS'etype'
p114
S"<type 'exceptions.NameError'>"
p115
sS'date'
p116
S'Tue Mar 19 02:37:49 2019'
p117
sS'response'
p118
g59
(S'sS\x18\x00\x00<div><table><tr><td style="font-weight:bold;vertical-align:top;">body</td><td style="vertical-align:top;">:</td><td><div>&lt;cStringIO.StringO object at 0x6ef00d20&gt;</div></td></tr><tr><td style="font-weight:bold;vertical-align:top;">cookies</td><td style="vertical-align:top;">:</td><td><div><table><tr><td style="font-weight:bold;vertical-align:top;">session_id_elementartrumpf</td><td style="vertical-align:top;">:</td><td><div>192.168.0.5-d6347f0b-3f45-421a-a9bc-c3df72032233<table><tr><td style="font-weight:bold;vertical-align:top;">comment</td><td style="vertical-align:top;">:</td><td><div></div></td></tr><tr><td style="font-weight:bold;vertical-align:top;">domain</td><td style="vertical-align:top;">:</td><td><div></div></td></tr><tr><td style="font-weight:bold;vertical-align:top;">expires</td><td style="vertical-align:top;">:</td><td><div></div></td></tr><tr><td style="font-weight:bold;vertical-align:top;">httponly</td><td style="vertical-align:top;">:</td><td><div></div></td></tr><tr><td style="font-weight:bold;vertical-align:top;">max-age</td><td style="vertical-align:top;">:</td><td><div></div></td></tr><tr><td style="font-weight:bold;vertical-align:top;">path</td><td style="vertical-align:top;">:</td><td><div>/</div></td></tr><tr><td style="font-weight:bold;vertical-align:top;">samesite</td><td style="vertical-align:top;">:</td><td><div></div></td></tr><tr><td style="font-weight:bold;vertical-align:top;">secure</td><td style="vertical-align:top;">:</td><td><div></div></td></tr><tr><td style="font-weight:bold;vertical-align:top;">version</td><td style="vertical-align:top;">:</td><td><div></div></td></tr></table></div></td></tr></table></div></td></tr><tr><td style="font-weight:bold;vertical-align:top;">delimiters</td><td style="vertical-align:top;">:</td><td><div><table><tr><td><div>{{</div></td></tr><tr><td><div>}}</div></td></tr></table></div></td></tr><tr><td style="font-weight:bold;vertical-align:top;">files</td><td style="vertical-align:top;">:</td><td><div><table></table></div></td></tr><tr><td style="font-weight:bold;vertical-align:top;">flash</td><td style="vertical-align:top;">:</td><td><div></div></td></tr><tr><td style="font-weight:bold;vertical-align:top;">form_label_separator</td><td style="vertical-align:top;">:</td><td><div>: </div></td></tr><tr><td style="font-weight:bold;vertical-align:top;">formstyle</td><td style="vertical-align:top;">:</td><td><div>table3cols</div></td></tr><tr><td style="font-weight:bold;vertical-align:top;">generic_patterns</td><td style="vertical-align:top;">:</td><td><div><table><tr><td><div>*</div></td></tr></table></div></td></tr><tr><td style="font-weight:bold;vertical-align:top;">headers</td><td style="vertical-align:top;">:</td><td><div><table><tr><td style="font-weight:bold;vertical-align:top;">X-Powered-By</td><td style="vertical-align:top;">:</td><td><div>web2py</div></td></tr></table></div></td></tr><tr><td style="font-weight:bold;vertical-align:top;">menu</td><td style="vertical-align:top;">:</td><td><div><table></table></div></td></tr><tr><td style="font-weight:bold;vertical-align:top;">meta</td><td style="vertical-align:top;">:</td><td><div><table></table></div></td></tr><tr><td style="font-weight:bold;vertical-align:top;">models_to_run</td><td style="vertical-align:top;">:</td><td><div><table><tr><td><div>^\\w+\\.py$</div></td></tr><tr><td><div>^ElementarTrumpfControl/\\w+\\.py$</div></td></tr><tr><td><div>^ElementarTrumpfControl/kartenZiehen/\\w+\\.py$</div></td></tr></table></div></td></tr><tr><td style="font-weight:bold;vertical-align:top;">postprocessing</td><td style="vertical-align:top;">:</td><td><div><table></table></div></td></tr><tr><td style="font-weight:bold;vertical-align:top;">session_client</td><td style="vertical-align:top;">:</td><td><div>192.168.0.5</div></td></tr><tr><td style="font-weight:bold;vertical-align:top;">session_cookie_compression_level</td><td style="vertical-align:top;">:</td><td><div>None</div></td></tr><tr><td style="font-weight:bold;vertical-align:top;">session_cookie_expires</td><td style="vertical-align:top;">:</td><td><div>None</div></td></tr><tr><td style="font-weight:bold;vertical-align:top;">session_data_name</td><td style="vertical-align:top;">:</td><td><div>session_data_elementartrumpf</div></td></tr><tr><td style="font-weight:bold;vertical-align:top;">session_file</td><td style="vertical-align:top;">:</td><td><div>&lt;open file &#x27;/var/www/python/web2py/applications/ElementarTrumpf/sessions/0fa/1c5/192.168.0.5-d6347f0b-3f45-421a-a9bc-c3df72032233&#x27;, mode &#x27;rb+&#x27; at 0x6f56ec28&gt;</div></td></tr><tr><td style="font-weight:bold;vertical-align:top;">session_filename</td><td style="vertical-align:top;">:</td><td><div>/var/www/python/web2py/applications/ElementarTrumpf/sessions/192.168.0.5-d6347f0b-3f45-421a-a9bc-c3df72032233</div></td></tr><tr><td style="font-weight:bold;vertical-align:top;">session_hash</td><td style="vertical-align:top;">:</td><td><div>4ecb33c0f058da3327c76b865a5092dd</div></td></tr><tr><td style="font-weight:bold;vertical-align:top;">session_id</td><td style="vertical-align:top;">:</td><td><div>192.168.0.5-d6347f0b-3f45-421a-a9bc-c3df72032233</div></td></tr><tr><td style="font-weight:bold;vertical-align:top;">session_id_name</td><td style="vertical-align:top;">:</td><td><div>session_id_elementartrumpf</div></td></tr><tr><td style="font-weight:bold;vertical-align:top;">session_locked</td><td style="vertical-align:top;">:</td><td><div>True</div></td></tr><tr><td style="font-weight:bold;vertical-align:top;">session_masterapp</td><td style="vertical-align:top;">:</td><td><div>ElementarTrumpf</div></td></tr><tr><td style="font-weight:bold;vertical-align:top;">session_new</td><td style="vertical-align:top;">:</td><td><div>False</div></td></tr><tr><td style="font-weight:bold;vertical-align:top;">session_storage_type</td><td style="vertical-align:top;">:</td><td><div>file</div></td></tr><tr><td style="font-weight:bold;vertical-align:top;">status</td><td style="vertical-align:top;">:</td><td><div>200</div></td></tr><tr><td style="font-weight:bold;vertical-align:top;">view</td><td style="vertical-align:top;">:</td><td><div>ElementarTrumpfControl/kartenZiehen.html</div></td></tr></table></div>'
tRp119
sS'locals'
p120
(dp121
S'PY2'
p122
S'True'
p123
sS'OBJECT'
p124
S"<class 'gluon.html.OBJECT'>"
p125
sS'SQLDB'
p126
S"<class 'pydal.base.DAL'>"
p127
sg112
S"<Storage {'humanScore': 0, 'aiScore': 0}>"
p128
sS'LINK'
p129
S"<class 'gluon.html.LINK'>"
p130
sS'BR'
p131
S"<class 'gluon.html.BR'>"
p132
sS'local_import'
p133
S'<function <lambda>>'
p134
sS'OPTGROUP'
p135
S"<class 'gluon.html.OPTGROUP'>"
p136
sS'PRE'
p137
S"<class 'gluon.html.PRE'>"
p138
sS'IS_INT_IN_RANGE'
p139
S"<class 'gluon.validators.IS_INT_IN_RANGE'>"
p140
sS'to_bytes'
p141
S'<function to_bytes>'
p142
sS'IS_LOWER'
p143
S"<class 'gluon.validators.IS_LOWER'>"
p144
sS'IS_STRONG'
p145
S"<class 'gluon.validators.IS_STRONG'>"
p146
sS'cache'
p147
S'<gluon.cache.Cache object>'
p148
sS'IS_IN_DB'
p149
S"<class 'gluon.validators.IS_IN_DB'>"
p150
sS'TAG'
p151
S'<gluon.html.__TAG__ object>'
p152
sS'SQLField'
p153
S"<class 'pydal.objects.Field'>"
p154
sS'BODY'
p155
S"<class 'gluon.html.BODY'>"
p156
sS'IS_DATE_IN_RANGE'
p157
S"<class 'gluon.validators.IS_DATE_IN_RANGE'>"
p158
sS'TH'
p159
S"<class 'gluon.html.TH'>"
p160
sS'URL'
p161
S'<function URL>'
p162
sS'__file__'
p163
S"'/var/www/python/web2py/applications/ElementarTrumpf/views/ElementarTrumpfControl/kartenZiehen.html'"
p164
sS'P'
S"<class 'gluon.html.P'>"
p165
sS'TFOOT'
p166
S"<class 'gluon.html.TFOOT'>"
p167
sS'iteritems'
p168
S'<function <lambda>>'
p169
sS'XHTML'
p170
S"<class 'gluon.html.XHTML'>"
p171
sS'ON'
p172
g123
sS'OL'
p173
S"<class 'gluon.html.OL'>"
p174
sS'TEXTAREA'
p175
S"<class 'gluon.html.TEXTAREA'>"
p176
sS'MENU'
p177
S"<class 'gluon.html.MENU'>"
p178
sS'EM'
p179
S"<class 'gluon.html.EM'>"
p180
sS'CODE'
p181
S"<class 'gluon.html.CODE'>"
p182
sS'HTTP'
p183
S"<class 'gluon.http.HTTP'>"
p184
sS'HR'
p185
S"<class 'gluon.html.HR'>"
p186
sS'IS_DATETIME'
p187
S"<class 'gluon.validators.IS_DATETIME'>"
p188
sS'reduce'
p189
S'<built-in function reduce>'
p190
sS'HEAD'
p191
S"<class 'gluon.html.HEAD'>"
p192
sS'LABEL'
p193
S"<class 'gluon.html.LABEL'>"
p194
sS'CLEANUP'
p195
S"<class 'gluon.validators.CLEANUP'>"
p196
sS'SELECT'
p197
S"<class 'gluon.html.SELECT'>"
p198
sS'CENTER'
p199
S"<class 'gluon.html.CENTER'>"
p200
sS'__builtins__'
p201
S"{'ArithmeticError': <type 'exceptions.ArithmeticError'>, 'AssertionError': <type 'exceptions.AssertionError'>, 'AttributeError': <type 'exceptions.AttributeError'>, 'BaseException': <type 'exceptions.BaseException'>, 'BufferError': <type 'exceptions.BufferError'>, 'BytesWarning': <type 'exceptions.BytesWarning'>, 'DeprecationWarning': <type 'exceptions.DeprecationWarning'>, 'EOFError': <type 'exceptions.EOFError'>, 'Ellipsis': Ellipsis, 'EnvironmentError': <type 'exceptions.EnvironmentError'>, ...}"
p202
sS'HTML'
p203
S"<class 'gluon.html.HTML'>"
p204
sS'SQLFORM'
p205
S"<class 'gluon.sqlhtml.SQLFORM'>"
p206
sS'LOAD'
p207
S'<function LOAD>'
p208
sS'redirect'
p209
S'<function redirect>'
p210
sS'FIELDSET'
p211
S"<class 'gluon.html.FIELDSET'>"
p212
sS'IS_EQUAL_TO'
p213
S"<class 'gluon.validators.IS_EQUAL_TO'>"
p214
sS'embed64'
p215
S'<function embed64>'
p216
sS'IS_LIST_OF'
p217
S"<class 'gluon.validators.IS_LIST_OF'>"
p218
sS'__name__'
p219
S"'__restricted__'"
p220
sS'EMBED'
p221
S"<class 'gluon.html.EMBED'>"
p222
sS'FORM'
p223
S"<class 'gluon.html.FORM'>"
p224
sS'H2'
p225
S"<class 'gluon.html.H2'>"
p226
sS'H3'
p227
S"<class 'gluon.html.H3'>"
p228
sS'BUTTON'
p229
S"<class 'gluon.html.BUTTON'>"
p230
sS'H1'
p231
S"<class 'gluon.html.H1'>"
p232
sS'H6'
p233
S"<class 'gluon.html.H6'>"
p234
sS'H4'
p235
S"<class 'gluon.html.H4'>"
p236
sS'H5'
p237
S"<class 'gluon.html.H5'>"
p238
sS'UL'
p239
S"<class 'gluon.html.UL'>"
p240
sS'IS_UPPER'
p241
S"<class 'gluon.validators.IS_UPPER'>"
p242
sS'xmlescape'
p243
S'<function xmlescape>'
p244
sS'IS_TIME'
p245
S"<class 'gluon.validators.IS_TIME'>"
p246
sS'OPTION'
p247
S"<class 'gluon.html.OPTION'>"
p248
sS'TITLE'
p249
S"<class 'gluon.html.TITLE'>"
p250
sS'CRYPT'
p251
S"<class 'gluon.validators.CRYPT'>"
p252
sS'IS_EMPTY_OR'
p253
S"<class 'gluon.validators.IS_EMPTY_OR'>"
p254
sS'MARKMIN'
p255
S"<class 'gluon.html.MARKMIN'>"
p256
sS'INPUT'
p257
S"<class 'gluon.html.INPUT'>"
p258
sS'STRONG'
p259
S"<class 'gluon.html.STRONG'>"
p260
sS'COL'
p261
S"<class 'gluon.html.COL'>"
p262
sS'SCRIPT'
p263
S"<class 'gluon.html.SCRIPT'>"
p264
sS'TABLE'
p265
S"<class 'gluon.html.TABLE'>"
p266
sS'IS_IPV4'
p267
S"<class 'gluon.validators.IS_IPV4'>"
p268
sS'IS_LENGTH'
p269
S"<class 'gluon.validators.IS_LENGTH'>"
p270
sS'IS_IPV6'
p271
S"<class 'gluon.validators.IS_IPV6'>"
p272
sS'XML'
p273
S"<class 'gluon.html.XML'>"
p274
sS'B'
S"<class 'gluon.html.B'>"
p275
sS'IMG'
p276
S"<class 'gluon.html.IMG'>"
p277
sS'SQLTABLE'
p278
S"<class 'gluon.sqlhtml.SQLTABLE'>"
p279
sS'IS_MATCH'
p280
S"<class 'gluon.validators.IS_MATCH'>"
p281
sS'IS_ALPHANUMERIC'
p282
S"<class 'gluon.validators.IS_ALPHANUMERIC'>"
p283
sS'SPAN'
p284
S"<class 'gluon.html.SPAN'>"
p285
sS'IS_JSON'
p286
S"<class 'gluon.validators.IS_JSON'>"
p287
sS'IS_IPADDRESS'
p288
S"<class 'gluon.validators.IS_IPADDRESS'>"
p289
sS'IS_SLUG'
p290
S"<class 'gluon.validators.IS_SLUG'>"
p291
sS'BEAUTIFY'
p292
S"<class 'gluon.html.BEAUTIFY'>"
p293
sS'META'
p294
S"<class 'gluon.html.META'>"
p295
sS'IS_DATE'
p296
S"<class 'gluon.validators.IS_DATE'>"
p297
sS'IS_EMAIL'
p298
S"<class 'gluon.validators.IS_EMAIL'>"
p299
sS'IS_NOT_EMPTY'
p300
S"<class 'gluon.validators.IS_NOT_EMPTY'>"
p301
sS'xrange'
p302
S"<type 'xrange'>"
p303
sS'TBODY'
p304
S"<class 'gluon.html.TBODY'>"
p305
sS'CAT'
p306
S"<class 'gluon.html.CAT'>"
p307
sS'Field'
p308
S"<class 'pydal.objects.Field'>"
p309
sS'IS_LIST_OF_EMAILS'
p310
S"<class 'gluon.validators.IS_LIST_OF_EMAILS'>"
p311
sg58
S"<Storage {'_vars': <Storage {}>, 'function': 'ka...applications/ElementarTrumpf/', 'method': 'GET'}>"
p312
sS'DIV'
p313
S"<class 'gluon.html.DIV'>"
p314
sS'LEGEND'
p315
S"<class 'gluon.html.LEGEND'>"
p316
sS'to_native'
p317
S'<function to_native>'
p318
sS'COLGROUP'
p319
S"<class 'gluon.html.COLGROUP'>"
p320
sS'DAL'
p321
S"<class 'pydal.base.DAL'>"
p322
sS'ASSIGNJS'
p323
S'<function ASSIGNJS>'
p324
sS'TR'
p325
S"<class 'gluon.html.TR'>"
p326
sS'LI'
p327
S"<class 'gluon.html.LI'>"
p328
sS'IFRAME'
p329
S"<class 'gluon.html.IFRAME'>"
p330
sS'TD'
p331
S"<class 'gluon.html.TD'>"
p332
sS'IS_URL'
p333
S"<class 'gluon.validators.IS_URL'>"
p334
sS'A'
S"<class 'gluon.html.A'>"
p335
sS'STYLE'
p336
S"<class 'gluon.html.STYLE'>"
p337
sS'IS_DATETIME_IN_RANGE'
p338
S"<class 'gluon.validators.IS_DATETIME_IN_RANGE'>"
p339
sS'IS_IMAGE'
p340
S"<class 'gluon.validators.IS_IMAGE'>"
p341
sS'I'
S"<class 'gluon.html.I'>"
p342
sS'IS_NOT_IN_DB'
p343
S"<class 'gluon.validators.IS_NOT_IN_DB'>"
p344
sg118
S"<Storage {'body': <cStringIO.StringO object at 0...ew': 'ElementarTrumpfControl/kartenZiehen.html'}>"
p345
sS'THEAD'
p346
S"<class 'gluon.html.THEAD'>"
p347
sS'ANY_OF'
p348
S"<class 'gluon.validators.ANY_OF'>"
p349
sS'IS_NULL_OR'
p350
S"<class 'gluon.validators.IS_EMPTY_OR'>"
p351
sS'IS_FLOAT_IN_RANGE'
p352
S"<class 'gluon.validators.IS_FLOAT_IN_RANGE'>"
p353
sS'IS_EXPR'
p354
S"<class 'gluon.validators.IS_EXPR'>"
p355
sS'T'
S'<gluon.languages.translator object>'
p356
sS'IS_IN_SET'
p357
S"<class 'gluon.validators.IS_IN_SET'>"
p358
sS'IS_UPLOAD_FILENAME'
p359
S"<class 'gluon.validators.IS_UPLOAD_FILENAME'>"
p360
sS'TT'
p361
S"<class 'gluon.html.TT'>"
p362
sS'IS_DECIMAL_IN_RANGE'
p363
S"<class 'gluon.validators.IS_DECIMAL_IN_RANGE'>"
p364
sssS'traceback'
p365
S'Traceback (most recent call last):\n  File "/var/www/python/web2py/gluon/restricted.py", line 219, in restricted\n    exec(ccode, environment)\n  File "/var/www/python/web2py/applications/ElementarTrumpf/views/ElementarTrumpfControl/kartenZiehen.html", line 6, in <module>\n    <link rel="stylesheet" href="/ElementarTrumpf/static/css/styleshit.css"></link>\nNameError: name \'humanMonsterValue\' is not defined\n'
p366
s.