(dp1
S'output'
p2
S"<type 'exceptions.KeyError'> 3"
p3
sS'layer'
p4
S'/var/www/python/web2py/applications/ElementarTrumpf/views/ElementarTrumpfControl/kartenZiehen.html'
p5
sS'code'
p6
S'response.write(\'\\xef\\xbb\\xbf<!DOCTYPE html>\\n<html lang="de">\\n\\t<head>\\n\\t  <meta http-equiv="content-type" content="text/html; charset=UTF-8" />\\n\\t  <title>Elementar Trumpf</title>\\n\\t  <link rel="stylesheet" href="/ElementarTrumpf/static/css/styleshit.css"></link>\\n\\t</head>\\n\\n\\t<body style="width: 800px">\\n\\t  <header id="header">\\n\\t\\t  <div style="height: 100px">\\n\\t\\t\\t  <div class="spieler" style="float:left;"><p>\', escape=False)\nresponse.write(session.humanScore)\nresponse.write(\'</p></div>\\n\\t\\t\\t  <div class="spieler" style="float:right;"><p style="float: right;">\', escape=False)\nresponse.write(session.aiScore)\nresponse.write(\'</p></div>\\n\\t\\t  </div>\\n\\t  </header>\\n\\t  <h1>\', escape=False)\nresponse.write(test)\nresponse.write(\'</h1>\\n\\t\\t<div id="arena" style="height: 400px; width:100%;"> \\n\\t\\t\\t<div id="k1" class="karte">\\n\\t\\t\\t\\t\', escape=False)\nif result != "none":\n    response.write(\'\\n\\t\\t\\t\\t<div style="">\\n\\t\\t\\t\\t\\t<img src="/ElementarTrumpf/static/images/\', escape=False)\n    response.write(humanMonsterValue[3])\n    response.write(\'"></img>\\n\\t\\t\\t\\t</div>\\n\\t\\t\\t\\t<div class= "eigenschaften">\\n\\t\\t\\t\\t\\t<ul>\\n\\t\\t\\t\\t\\t\\t\\n\\t\\t\\t\\t\\t</ul>\\n\\t\\t\\t\\t</div>\\n\\t\\t\\t\\t\', escape=False)\nelse:\n    response.write(\'\\n\\t\\t\\t\\t<div style="">\\n\\t\\t\\t\\t\\t<img src="/ElementarTrumpf/static/images/VK.gif"></img>\\n\\t\\t\\t\\t</div>\\n\\t\\t\\t\\t<div class= "eigenschaften"></div>\\n\\t\\t\\t\\t\', escape=False)\n    pass\nresponse.write(\'\\n\\t\\t\\t</div>\\n\\n\\t\\t\\t<div id="vs">\\n\\t\\t\\t\\t<img src="/ElementarTrumpf/static/images/VS.gif"></img>\\n\\t\\t\\t</div>\\n\\n\\t\\t\\t<div id="k2" class="karte">\\n\\t\\t\\t\\t<div>\\n\\t\\t\\t\\t\\t<img src="/ElementarTrumpf/static/images/VK.gif"></img>\\n\\t\\t\\t\\t</div>\\n\\t\\t\\t\\t<div class= "eigenschaften"></div>\\n\\t\\t\\t</div>\\n\\t\\t</div>\\n\\t\\t<footer style="height: 100px; width:100%;">\\n\\t\\t\\t<div style="font-size: 20px;" > W\\xc3\\xa4hle eine Eigenschaft! Dr\\xc3\\xbccke <a href="\', escape=False)\nresponse.write(URL(vars=dict(choice=\'groesse\')))\nresponse.write(\'">g f\\xc3\\xbcr Gr\\xc3\\xb6\\xc3\\x9fe</a>, i f\\xc3\\xbcr Initiative oder s f\\xc3\\xbcr St\\xc3\\xa4rke !?</div>\\n\\t\\t</footer>\\n\\t</body>\\n</html>\\n\', escape=False)'
p7
sS'snapshot'
p8
(dp9
S'exception'
p10
(dp11
S'__getslice__'
p12
S"<method-wrapper '__getslice__' of exceptions.KeyError object>"
p13
sS'__str__'
p14
S"<method-wrapper '__str__' of exceptions.KeyError object>"
p15
sS'__reduce__'
p16
S'<built-in method __reduce__ of exceptions.KeyError object>'
p17
sS'__dict__'
p18
S'{}'
p19
sS'message'
p20
S'3'
sS'__sizeof__'
p21
S'<built-in method __sizeof__ of exceptions.KeyError object>'
p22
sS'__init__'
p23
S"<method-wrapper '__init__' of exceptions.KeyError object>"
p24
sS'__setattr__'
p25
S"<method-wrapper '__setattr__' of exceptions.KeyError object>"
p26
sS'__reduce_ex__'
p27
S'<built-in method __reduce_ex__ of exceptions.KeyError object>'
p28
sS'__new__'
p29
S'<built-in method __new__ of type object>'
p30
sS'__format__'
p31
S'<built-in method __format__ of exceptions.KeyError object>'
p32
sS'__class__'
p33
S"<type 'exceptions.KeyError'>"
p34
sS'__doc__'
p35
S"'Mapping key not found.'"
p36
sS'__getitem__'
p37
S"<method-wrapper '__getitem__' of exceptions.KeyError object>"
p38
sS'__setstate__'
p39
S'<built-in method __setstate__ of exceptions.KeyError object>'
p40
sS'__getattribute__'
p41
S"<method-wrapper '__getattribute__' of exceptions.KeyError object>"
p42
sS'args'
p43
S'(3,)'
p44
sS'__subclasshook__'
p45
S'<built-in method __subclasshook__ of type object>'
p46
sS'__unicode__'
p47
S'<built-in method __unicode__ of exceptions.KeyError object>'
p48
sS'__delattr__'
p49
S"<method-wrapper '__delattr__' of exceptions.KeyError object>"
p50
sS'__repr__'
p51
S"<method-wrapper '__repr__' of exceptions.KeyError object>"
p52
sS'__hash__'
p53
S"<method-wrapper '__hash__' of exceptions.KeyError object>"
p54
ssS'evalue'
p55
S'3'
sS'request'
p56
cgluon.html
XML_unpickle
p57
(S'sl`\x00\x00<div><table><tr><td style="font-weight:bold;vertical-align:top;">ajax</td><td style="vertical-align:top;">:</td><td><div>False</div></td></tr><tr><td style="font-weight:bold;vertical-align:top;">application</td><td style="vertical-align:top;">:</td><td><div>ElementarTrumpf</div></td></tr><tr><td style="font-weight:bold;vertical-align:top;">args</td><td style="vertical-align:top;">:</td><td><div><table></table></div></td></tr><tr><td style="font-weight:bold;vertical-align:top;">cid</td><td style="vertical-align:top;">:</td><td><div>None</div></td></tr><tr><td style="font-weight:bold;vertical-align:top;">client</td><td style="vertical-align:top;">:</td><td><div>192.168.0.5</div></td></tr><tr><td style="font-weight:bold;vertical-align:top;">controller</td><td style="vertical-align:top;">:</td><td><div>ElementarTrumpfControl</div></td></tr><tr><td style="font-weight:bold;vertical-align:top;">cookies</td><td style="vertical-align:top;">:</td><td><div><table><tr><td style="font-weight:bold;vertical-align:top;">session_id_admin</td><td style="vertical-align:top;">:</td><td><div>192.168.0.5-5f82dc8f-5bdc-433c-abce-27ebce20c7f6<table><tr><td style="font-weight:bold;vertical-align:top;">comment</td><td style="vertical-align:top;">:</td><td><div></div></td></tr><tr><td style="font-weight:bold;vertical-align:top;">domain</td><td style="vertical-align:top;">:</td><td><div></div></td></tr><tr><td style="font-weight:bold;vertical-align:top;">expires</td><td style="vertical-align:top;">:</td><td><div></div></td></tr><tr><td style="font-weight:bold;vertical-align:top;">httponly</td><td style="vertical-align:top;">:</td><td><div></div></td></tr><tr><td style="font-weight:bold;vertical-align:top;">max-age</td><td style="vertical-align:top;">:</td><td><div></div></td></tr><tr><td style="font-weight:bold;vertical-align:top;">path</td><td style="vertical-align:top;">:</td><td><div></div></td></tr><tr><td style="font-weight:bold;vertical-align:top;">samesite</td><td style="vertical-align:top;">:</td><td><div></div></td></tr><tr><td style="font-weight:bold;vertical-align:top;">secure</td><td style="vertical-align:top;">:</td><td><div></div></td></tr><tr><td style="font-weight:bold;vertical-align:top;">version</td><td style="vertical-align:top;">:</td><td><div></div></td></tr></table></div></td></tr><tr><td style="font-weight:bold;vertical-align:top;">session_id_elementartrumpf</td><td style="vertical-align:top;">:</td><td><div>192.168.0.5-d6347f0b-3f45-421a-a9bc-c3df72032233<table><tr><td style="font-weight:bold;vertical-align:top;">comment</td><td style="vertical-align:top;">:</td><td><div></div></td></tr><tr><td style="font-weight:bold;vertical-align:top;">domain</td><td style="vertical-align:top;">:</td><td><div></div></td></tr><tr><td style="font-weight:bold;vertical-align:top;">expires</td><td style="vertical-align:top;">:</td><td><div></div></td></tr><tr><td style="font-weight:bold;vertical-align:top;">httponly</td><td style="vertical-align:top;">:</td><td><div></div></td></tr><tr><td style="font-weight:bold;vertical-align:top;">max-age</td><td style="vertical-align:top;">:</td><td><div></div></td></tr><tr><td style="font-weight:bold;vertical-align:top;">path</td><td style="vertical-align:top;">:</td><td><div></div></td></tr><tr><td style="font-weight:bold;vertical-align:top;">samesite</td><td style="vertical-align:top;">:</td><td><div></div></td></tr><tr><td style="font-weight:bold;vertical-align:top;">secure</td><td style="vertical-align:top;">:</td><td><div></div></td></tr><tr><td style="font-weight:bold;vertical-align:top;">version</td><td style="vertical-align:top;">:</td><td><div></div></td></tr></table></div></td></tr><tr><td style="font-weight:bold;vertical-align:top;">session_id_welcome</td><td style="vertical-align:top;">:</td><td><div>192.168.0.5-d90e60e0-4e82-44ae-9e4d-392d7d78b13f<table><tr><td style="font-weight:bold;vertical-align:top;">comment</td><td style="vertical-align:top;">:</td><td><div></div></td></tr><tr><td style="font-weight:bold;vertical-align:top;">domain</td><td style="vertical-align:top;">:</td><td><div></div></td></tr><tr><td style="font-weight:bold;vertical-align:top;">expires</td><td style="vertical-align:top;">:</td><td><div></div></td></tr><tr><td style="font-weight:bold;vertical-align:top;">httponly</td><td style="vertical-align:top;">:</td><td><div></div></td></tr><tr><td style="font-weight:bold;vertical-align:top;">max-age</td><td style="vertical-align:top;">:</td><td><div></div></td></tr><tr><td style="font-weight:bold;vertical-align:top;">path</td><td style="vertical-align:top;">:</td><td><div></div></td></tr><tr><td style="font-weight:bold;vertical-align:top;">samesite</td><td style="vertical-align:top;">:</td><td><div></div></td></tr><tr><td style="font-weight:bold;vertical-align:top;">secure</td><td style="vertical-align:top;">:</td><td><div></div></td></tr><tr><td style="font-weight:bold;vertical-align:top;">version</td><td style="vertical-align:top;">:</td><td><div></div></td></tr></table></div></td></tr></table></div></td></tr><tr><td style="font-weight:bold;vertical-align:top;">env</td><td style="vertical-align:top;">:</td><td><div><table><tr><td style="font-weight:bold;vertical-align:top;">HTTP_ACCEPT</td><td style="vertical-align:top;">:</td><td><div>text/html,application/xhtml+xml,application/xml;q=0.9,image/webp,*/*;q=0.8</div></td></tr><tr><td style="font-weight:bold;vertical-align:top;">HTTP_ACCEPT_ENCODING</td><td style="vertical-align:top;">:</td><td><div>gzip, deflate</div></td></tr><tr><td style="font-weight:bold;vertical-align:top;">HTTP_ACCEPT_LANGUAGE</td><td style="vertical-align:top;">:</td><td><div>en-US,en;q=0.5</div></td></tr><tr><td style="font-weight:bold;vertical-align:top;">HTTP_CACHE_CONTROL</td><td style="vertical-align:top;">:</td><td><div>no-cache</div></td></tr><tr><td style="font-weight:bold;vertical-align:top;">HTTP_CONNECTION</td><td style="vertical-align:top;">:</td><td><div>keep-alive</div></td></tr><tr><td style="font-weight:bold;vertical-align:top;">HTTP_COOKIE</td><td style="vertical-align:top;">:</td><td><div>session_id_welcome=192.168.0.5-d90e60e0-4e82-44ae-9e4d-392d7d78b13f; session_id_elementartrumpf=192.168.0.5-d6347f0b-3f45-421a-a9bc-c3df72032233; session_id_admin=192.168.0.5-5f82dc8f-5bdc-433c-abce-27ebce20c7f6</div></td></tr><tr><td style="font-weight:bold;vertical-align:top;">HTTP_HOST</td><td style="vertical-align:top;">:</td><td><div>192.168.0.11:8000</div></td></tr><tr><td style="font-weight:bold;vertical-align:top;">HTTP_PRAGMA</td><td style="vertical-align:top;">:</td><td><div>no-cache</div></td></tr><tr><td style="font-weight:bold;vertical-align:top;">HTTP_REFERER</td><td style="vertical-align:top;">:</td><td><div>http://192.168.0.11:8000/kartenZiehen?choice=groesse</div></td></tr><tr><td style="font-weight:bold;vertical-align:top;">HTTP_UPGRADE_INSECURE_REQUESTS</td><td style="vertical-align:top;">:</td><td><div>1</div></td></tr><tr><td style="font-weight:bold;vertical-align:top;">HTTP_USER_AGENT</td><td style="vertical-align:top;">:</td><td><div>Mozilla/5.0 (Windows NT 6.1; Win64; x64; rv:65.0) Gecko/20100101 Firefox/65.0</div></td></tr><tr><td style="font-weight:bold;vertical-align:top;">PATH_INFO</td><td style="vertical-align:top;">:</td><td><div>/kartenZiehen</div></td></tr><tr><td style="font-weight:bold;vertical-align:top;">QUERY_STRING</td><td style="vertical-align:top;">:</td><td><div>choice=groesse</div></td></tr><tr><td style="font-weight:bold;vertical-align:top;">REMOTE_ADDR</td><td style="vertical-align:top;">:</td><td><div>192.168.0.5</div></td></tr><tr><td style="font-weight:bold;vertical-align:top;">REMOTE_PORT</td><td style="vertical-align:top;">:</td><td><div>52368</div></td></tr><tr><td style="font-weight:bold;vertical-align:top;">REQUEST_METHOD</td><td style="vertical-align:top;">:</td><td><div>GET</div></td></tr><tr><td style="font-weight:bold;vertical-align:top;">SCRIPT_NAME</td><td style="vertical-align:top;">:</td><td><div></div></td></tr><tr><td style="font-weight:bold;vertical-align:top;">SERVER_NAME</td><td style="vertical-align:top;">:</td><td><div>raspberrypi</div></td></tr><tr><td style="font-weight:bold;vertical-align:top;">SERVER_PORT</td><td style="vertical-align:top;">:</td><td><div>8000</div></td></tr><tr><td style="font-weight:bold;vertical-align:top;">SERVER_PROTOCOL</td><td style="vertical-align:top;">:</td><td><div>HTTP/1.1</div></td></tr><tr><td style="font-weight:bold;vertical-align:top;">SERVER_SOFTWARE</td><td style="vertical-align:top;">:</td><td><div>Rocket 1.2.6</div></td></tr><tr><td style="font-weight:bold;vertical-align:top;">app_folders</td><td style="vertical-align:top;">:</td><td><div>set([&#x27;/var/www/python/web2py/applications/ElementarTrumpf/&#x27;, &#x27;/var/www/python/web2py/applications/admin/&#x27;, &#x27;/var/www/python/web2py/applications/welcome/&#x27;])</div></td></tr><tr><td style="font-weight:bold;vertical-align:top;">applications_parent</td><td style="vertical-align:top;">:</td><td><div>/var/www/python/web2py</div></td></tr><tr><td style="font-weight:bold;vertical-align:top;">cmd_args</td><td style="vertical-align:top;">:</td><td><div><table></table></div></td></tr><tr><td style="font-weight:bold;vertical-align:top;">cmd_options</td><td style="vertical-align:top;">:</td><td><div>&lt;Values at 0x76034670: {&#x27;verbose&#x27;: False, &#x27;ip&#x27;: &#x27;127.0.0.1&#x27;, &#x27;debuglevel&#x27;: 30, &#x27;with_scheduler&#x27;: False, &#x27;shutdown_timeout&#x27;: 5, &#x27;taskbar&#x27;: False, &#x27;with_coverage&#x27;: False, &#x27;pid_filename&#x27;: &#x27;httpserver.pid&#x27;, &#x27;maxthreads&#x27;: None, &#x27;softcron&#x27;: False, &#x27;server_name&#x27;: &#x27;raspberrypi&#x27;, &#x27;bpython&#x27;: False, &#x27;nogui&#x27;: False, &#x27;port&#x27;: 8000, &#x27;print_errors&#x27;: False, &#x27;extcron&#x27;: False, &#x27;runcron&#x27;: False, &#x27;run_system_tests&#x27;: False, &#x27;test&#x27;: None, &#x27;folder&#x27;: &#x27;/var/www/python/web2py&#x27;, &#x27;config&#x27;: &#x27;options.py&#x27;, &#x27;minthreads&#x27;: None, &#x27;shell&#x27;: None, &#x27;run&#x27;: &#x27;&#x27;, &#x27;log_filename&#x27;: &#x27;httpserver.log&#x27;, &#x27;profiler_dir&#x27;: None, &#x27;args&#x27;: [&#x27;&#x27;], &#x27;socket_timeout&#x27;: 5, &#x27;ssl_ca_certificate&#x27;: None, &#x27;scheduler&#x27;: None, &#x27;interfaces&#x27;: None, &#x27;ssl_private_key&#x27;: &#x27;&#x27;, &#x27;gae&#x27;: None, &#x27;password&#x27;: &#x27;******&#x27;, &#x27;request_queue_size&#x27;: 5, &#x27;ssl_certificate&#x27;: &#x27;&#x27;, &#x27;cronjob&#x27;: False, &#x27;numthreads&#x27;: None, &#x27;quiet&#x27;: False, &#x27;import_models&#x27;: False, &#x27;timeout&#x27;: 10, &#x27;plain&#x27;: False, &#x27;nobanner&#x27;: False}&gt;</div></td></tr><tr><td style="font-weight:bold;vertical-align:top;">db_sessions</td><td style="vertical-align:top;">:</td><td><div>set([])</div></td></tr><tr><td style="font-weight:bold;vertical-align:top;">debugging</td><td style="vertical-align:top;">:</td><td><div>False</div></td></tr><tr><td style="font-weight:bold;vertical-align:top;">gluon_parent</td><td style="vertical-align:top;">:</td><td><div>/var/www/python/web2py</div></td></tr><tr><td style="font-weight:bold;vertical-align:top;">http_accept</td><td style="vertical-align:top;">:</td><td><div>text/html,application/xhtml+xml,application/xml;q=0.9,image/webp,*/*;q=0.8</div></td></tr><tr><td style="font-weight:bold;vertical-align:top;">http_accept_encoding</td><td style="vertical-align:top;">:</td><td><div>gzip, deflate</div></td></tr><tr><td style="font-weight:bold;vertical-align:top;">http_accept_language</td><td style="vertical-align:top;">:</td><td><div>en-US,en;q=0.5</div></td></tr><tr><td style="font-weight:bold;vertical-align:top;">http_cache_control</td><td style="vertical-align:top;">:</td><td><div>no-cache</div></td></tr><tr><td style="font-weight:bold;vertical-align:top;">http_connection</td><td style="vertical-align:top;">:</td><td><div>keep-alive</div></td></tr><tr><td style="font-weight:bold;vertical-align:top;">http_cookie</td><td style="vertical-align:top;">:</td><td><div>session_id_welcome=192.168.0.5-d90e60e0-4e82-44ae-9e4d-392d7d78b13f; session_id_elementartrumpf=192.168.0.5-d6347f0b-3f45-421a-a9bc-c3df72032233; session_id_admin=192.168.0.5-5f82dc8f-5bdc-433c-abce-27ebce20c7f6</div></td></tr><tr><td style="font-weight:bold;vertical-align:top;">http_host</td><td style="vertical-align:top;">:</td><td><div>192.168.0.11:8000</div></td></tr><tr><td style="font-weight:bold;vertical-align:top;">http_pragma</td><td style="vertical-align:top;">:</td><td><div>no-cache</div></td></tr><tr><td style="font-weight:bold;vertical-align:top;">http_referer</td><td style="vertical-align:top;">:</td><td><div>http://192.168.0.11:8000/kartenZiehen?choice=groesse</div></td></tr><tr><td style="font-weight:bold;vertical-align:top;">http_upgrade_insecure_requests</td><td style="vertical-align:top;">:</td><td><div>1</div></td></tr><tr><td style="font-weight:bold;vertical-align:top;">http_user_agent</td><td style="vertical-align:top;">:</td><td><div>Mozilla/5.0 (Windows NT 6.1; Win64; x64; rv:65.0) Gecko/20100101 Firefox/65.0</div></td></tr><tr><td style="font-weight:bold;vertical-align:top;">is_jython</td><td style="vertical-align:top;">:</td><td><div>False</div></td></tr><tr><td style="font-weight:bold;vertical-align:top;">is_py2</td><td style="vertical-align:top;">:</td><td><div>True</div></td></tr><tr><td style="font-weight:bold;vertical-align:top;">is_pypy</td><td style="vertical-align:top;">:</td><td><div>False</div></td></tr><tr><td style="font-weight:bold;vertical-align:top;">is_source</td><td style="vertical-align:top;">:</td><td><div>True</div></td></tr><tr><td style="font-weight:bold;vertical-align:top;">local_hosts</td><td style="vertical-align:top;">:</td><td><div><table><tr><td><div>raspberrypi</div></td></tr><tr><td><div>::1</div></td></tr><tr><td><div>127.0.1.1</div></td></tr><tr><td><div>::ffff:127.0.0.1</div></td></tr><tr><td><div>127.0.0.1</div></td></tr></table></div></td></tr><tr><td style="font-weight:bold;vertical-align:top;">path_info</td><td style="vertical-align:top;">:</td><td><div>/kartenZiehen</div></td></tr><tr><td style="font-weight:bold;vertical-align:top;">query_string</td><td style="vertical-align:top;">:</td><td><div>choice=groesse</div></td></tr><tr><td style="font-weight:bold;vertical-align:top;">remote_addr</td><td style="vertical-align:top;">:</td><td><div>192.168.0.5</div></td></tr><tr><td style="font-weight:bold;vertical-align:top;">remote_port</td><td style="vertical-align:top;">:</td><td><div>52368</div></td></tr><tr><td style="font-weight:bold;vertical-align:top;">request_method</td><td style="vertical-align:top;">:</td><td><div>GET</div></td></tr><tr><td style="font-weight:bold;vertical-align:top;">request_uri</td><td style="vertical-align:top;">:</td><td><div>/ElementarTrumpf/ElementarTrumpfControl/kartenZiehen?choice=groesse</div></td></tr><tr><td style="font-weight:bold;vertical-align:top;">script_name</td><td style="vertical-align:top;">:</td><td><div></div></td></tr><tr><td style="font-weight:bold;vertical-align:top;">server_name</td><td style="vertical-align:top;">:</td><td><div>raspberrypi</div></td></tr><tr><td style="font-weight:bold;vertical-align:top;">server_port</td><td style="vertical-align:top;">:</td><td><div>8000</div></td></tr><tr><td style="font-weight:bold;vertical-align:top;">server_protocol</td><td style="vertical-align:top;">:</td><td><div>HTTP/1.1</div></td></tr><tr><td style="font-weight:bold;vertical-align:top;">server_software</td><td style="vertical-align:top;">:</td><td><div>Rocket 1.2.6</div></td></tr><tr><td style="font-weight:bold;vertical-align:top;">web2py_original_uri</td><td style="vertical-align:top;">:</td><td><div>/kartenZiehen?choice=groesse</div></td></tr><tr><td style="font-weight:bold;vertical-align:top;">web2py_path</td><td style="vertical-align:top;">:</td><td><div>/var/www/python/web2py</div></td></tr><tr><td style="font-weight:bold;vertical-align:top;">web2py_version</td><td style="vertical-align:top;">:</td><td><div>2.17.2-stable+timestamp.2018.10.06.18.54.02</div></td></tr><tr><td style="font-weight:bold;vertical-align:top;">wsgi.errors</td><td style="vertical-align:top;">:</td><td><div>&lt;open file &#x27;&lt;stderr&gt;&#x27;, mode &#x27;w&#x27; at 0x76c970d0&gt;</div></td></tr><tr><td style="font-weight:bold;vertical-align:top;">wsgi.file_wrapper</td><td style="vertical-align:top;">:</td><td><div>&lt;class wsgiref.util.FileWrapper at 0x760a91b8&gt;</div></td></tr><tr><td style="font-weight:bold;vertical-align:top;">wsgi.input</td><td style="vertical-align:top;">:</td><td><div>&lt;socket._fileobject object at 0x757bbb30&gt;</div></td></tr><tr><td style="font-weight:bold;vertical-align:top;">wsgi.multiprocess</td><td style="vertical-align:top;">:</td><td><div>False</div></td></tr><tr><td style="font-weight:bold;vertical-align:top;">wsgi.multithread</td><td style="vertical-align:top;">:</td><td><div>True</div></td></tr><tr><td style="font-weight:bold;vertical-align:top;">wsgi.run_once</td><td style="vertical-align:top;">:</td><td><div>False</div></td></tr><tr><td style="font-weight:bold;vertical-align:top;">wsgi.url_scheme</td><td style="vertical-align:top;">:</td><td><div>http</div></td></tr><tr><td style="font-weight:bold;vertical-align:top;">wsgi.version</td><td style="vertical-align:top;">:</td><td><div><table><tr><td><div>1</div></td></tr><tr><td><div>0</div></td></tr></table></div></td></tr><tr><td style="font-weight:bold;vertical-align:top;">wsgi_errors</td><td style="vertical-align:top;">:</td><td><div>&lt;open file &#x27;&lt;stderr&gt;&#x27;, mode &#x27;w&#x27; at 0x76c970d0&gt;</div></td></tr><tr><td style="font-weight:bold;vertical-align:top;">wsgi_file_wrapper</td><td style="vertical-align:top;">:</td><td><div>&lt;class wsgiref.util.FileWrapper at 0x760a91b8&gt;</div></td></tr><tr><td style="font-weight:bold;vertical-align:top;">wsgi_input</td><td style="vertical-align:top;">:</td><td><div>&lt;socket._fileobject object at 0x757bbb30&gt;</div></td></tr><tr><td style="font-weight:bold;vertical-align:top;">wsgi_multiprocess</td><td style="vertical-align:top;">:</td><td><div>False</div></td></tr><tr><td style="font-weight:bold;vertical-align:top;">wsgi_multithread</td><td style="vertical-align:top;">:</td><td><div>True</div></td></tr><tr><td style="font-weight:bold;vertical-align:top;">wsgi_run_once</td><td style="vertical-align:top;">:</td><td><div>False</div></td></tr><tr><td style="font-weight:bold;vertical-align:top;">wsgi_url_scheme</td><td style="vertical-align:top;">:</td><td><div>http</div></td></tr><tr><td style="font-weight:bold;vertical-align:top;">wsgi_version</td><td style="vertical-align:top;">:</td><td><div><table><tr><td><div>1</div></td></tr><tr><td><div>0</div></td></tr></table></div></td></tr></table></div></td></tr><tr><td style="font-weight:bold;vertical-align:top;">extension</td><td style="vertical-align:top;">:</td><td><div>html</div></td></tr><tr><td style="font-weight:bold;vertical-align:top;">folder</td><td style="vertical-align:top;">:</td><td><div>/var/www/python/web2py/applications/ElementarTrumpf/</div></td></tr><tr><td style="font-weight:bold;vertical-align:top;">function</td><td style="vertical-align:top;">:</td><td><div>kartenZiehen</div></td></tr><tr><td style="font-weight:bold;vertical-align:top;">global_settings</td><td style="vertical-align:top;">:</td><td><div><table><tr><td style="font-weight:bold;vertical-align:top;">app_folders</td><td style="vertical-align:top;">:</td><td><div>set([&#x27;/var/www/python/web2py/applications/ElementarTrumpf/&#x27;, &#x27;/var/www/python/web2py/applications/admin/&#x27;, &#x27;/var/www/python/web2py/applications/welcome/&#x27;])</div></td></tr><tr><td style="font-weight:bold;vertical-align:top;">applications_parent</td><td style="vertical-align:top;">:</td><td><div>/var/www/python/web2py</div></td></tr><tr><td style="font-weight:bold;vertical-align:top;">cmd_args</td><td style="vertical-align:top;">:</td><td><div><table></table></div></td></tr><tr><td style="font-weight:bold;vertical-align:top;">cmd_options</td><td style="vertical-align:top;">:</td><td><div>&lt;Values at 0x76034670: {&#x27;verbose&#x27;: False, &#x27;ip&#x27;: &#x27;127.0.0.1&#x27;, &#x27;debuglevel&#x27;: 30, &#x27;with_scheduler&#x27;: False, &#x27;shutdown_timeout&#x27;: 5, &#x27;taskbar&#x27;: False, &#x27;with_coverage&#x27;: False, &#x27;pid_filename&#x27;: &#x27;httpserver.pid&#x27;, &#x27;maxthreads&#x27;: None, &#x27;softcron&#x27;: False, &#x27;server_name&#x27;: &#x27;raspberrypi&#x27;, &#x27;bpython&#x27;: False, &#x27;nogui&#x27;: False, &#x27;port&#x27;: 8000, &#x27;print_errors&#x27;: False, &#x27;extcron&#x27;: False, &#x27;runcron&#x27;: False, &#x27;run_system_tests&#x27;: False, &#x27;test&#x27;: None, &#x27;folder&#x27;: &#x27;/var/www/python/web2py&#x27;, &#x27;config&#x27;: &#x27;options.py&#x27;, &#x27;minthreads&#x27;: None, &#x27;shell&#x27;: None, &#x27;run&#x27;: &#x27;&#x27;, &#x27;log_filename&#x27;: &#x27;httpserver.log&#x27;, &#x27;profiler_dir&#x27;: None, &#x27;args&#x27;: [&#x27;&#x27;], &#x27;socket_timeout&#x27;: 5, &#x27;ssl_ca_certificate&#x27;: None, &#x27;scheduler&#x27;: None, &#x27;interfaces&#x27;: None, &#x27;ssl_private_key&#x27;: &#x27;&#x27;, &#x27;gae&#x27;: None, &#x27;password&#x27;: &#x27;******&#x27;, &#x27;request_queue_size&#x27;: 5, &#x27;ssl_certificate&#x27;: &#x27;&#x27;, &#x27;cronjob&#x27;: False, &#x27;numthreads&#x27;: None, &#x27;quiet&#x27;: False, &#x27;import_models&#x27;: False, &#x27;timeout&#x27;: 10, &#x27;plain&#x27;: False, &#x27;nobanner&#x27;: False}&gt;</div></td></tr><tr><td style="font-weight:bold;vertical-align:top;">db_sessions</td><td style="vertical-align:top;">:</td><td><div>set([])</div></td></tr><tr><td style="font-weight:bold;vertical-align:top;">debugging</td><td style="vertical-align:top;">:</td><td><div>False</div></td></tr><tr><td style="font-weight:bold;vertical-align:top;">gluon_parent</td><td style="vertical-align:top;">:</td><td><div>/var/www/python/web2py</div></td></tr><tr><td style="font-weight:bold;vertical-align:top;">is_jython</td><td style="vertical-align:top;">:</td><td><div>False</div></td></tr><tr><td style="font-weight:bold;vertical-align:top;">is_py2</td><td style="vertical-align:top;">:</td><td><div>True</div></td></tr><tr><td style="font-weight:bold;vertical-align:top;">is_pypy</td><td style="vertical-align:top;">:</td><td><div>False</div></td></tr><tr><td style="font-weight:bold;vertical-align:top;">is_source</td><td style="vertical-align:top;">:</td><td><div>True</div></td></tr><tr><td style="font-weight:bold;vertical-align:top;">local_hosts</td><td style="vertical-align:top;">:</td><td><div><table><tr><td><div>raspberrypi</div></td></tr><tr><td><div>::1</div></td></tr><tr><td><div>127.0.1.1</div></td></tr><tr><td><div>::ffff:127.0.0.1</div></td></tr><tr><td><div>127.0.0.1</div></td></tr></table></div></td></tr><tr><td style="font-weight:bold;vertical-align:top;">web2py_version</td><td style="vertical-align:top;">:</td><td><div>2.17.2-stable+timestamp.2018.10.06.18.54.02</div></td></tr></table></div></td></tr><tr><td style="font-weight:bold;vertical-align:top;">is_https</td><td style="vertical-align:top;">:</td><td><div>False</div></td></tr><tr><td style="font-weight:bold;vertical-align:top;">is_local</td><td style="vertical-align:top;">:</td><td><div>False</div></td></tr><tr><td style="font-weight:bold;vertical-align:top;">is_restful</td><td style="vertical-align:top;">:</td><td><div>False</div></td></tr><tr><td style="font-weight:bold;vertical-align:top;">is_scheduler</td><td style="vertical-align:top;">:</td><td><div>False</div></td></tr><tr><td style="font-weight:bold;vertical-align:top;">is_shell</td><td style="vertical-align:top;">:</td><td><div>False</div></td></tr><tr><td style="font-weight:bold;vertical-align:top;">method</td><td style="vertical-align:top;">:</td><td><div>GET</div></td></tr><tr><td style="font-weight:bold;vertical-align:top;">now</td><td style="vertical-align:top;">:</td><td><div>datetime.datetime(2019, 3, 19, 2, 8, 4, 563263)</div></td></tr><tr><td style="font-weight:bold;vertical-align:top;">url</td><td style="vertical-align:top;">:</td><td><div>/kartenZiehen</div></td></tr><tr><td style="font-weight:bold;vertical-align:top;">utcnow</td><td style="vertical-align:top;">:</td><td><div>datetime.datetime(2019, 3, 19, 2, 8, 4, 563330)</div></td></tr><tr><td style="font-weight:bold;vertical-align:top;">wsgi</td><td style="vertical-align:top;">:</td><td><div>&lt;gluon.main.LazyWSGI object at 0x6f3642b0&gt;</div></td></tr></table></div>'
tRp58
sS'frames'
p59
(lp60
(dp61
S'file'
p62
S'/var/www/python/web2py/gluon/restricted.py'
p63
sS'dump'
p64
(dp65
S'environment'
p66
S"{'A': <class 'gluon.html.A'>, 'ANY_OF': <class 'gluon.validators.ANY_OF'>, 'ASSIGNJS': <function ASSIGNJS>, 'B': <class 'gluon.html.B'>, 'BEAUTIFY': <class 'gluon.html.BEAUTIFY'>, 'BODY': <class 'gluon.html.BODY'>, 'BR': <class 'gluon.html.BR'>, 'BUTTON': <class 'gluon.html.BUTTON'>, 'CAT': <class 'gluon.html.CAT'>, 'CENTER': <class 'gluon.html.CENTER'>, ...}"
p67
sS'ccode'
p68
S'<code object <module> at 0x6f53f770, file "/var/...lementarTrumpfControl/kartenZiehen.html", line 1>'
p69
ssS'lnum'
p70
I219
sS'lines'
p71
(dp72
I214
S'    if environment is None:'
p73
sI215
S'        environment = {}'
p74
sI216
S"    environment['__file__'] = layer"
p75
sI217
S"    environment['__name__'] = '__restricted__'"
p76
sI218
S'    try:'
p77
sI219
S'        exec(ccode, environment)'
p78
sI220
S'    except HTTP:'
p79
sI221
S'        raise'
p80
sI222
S'    except RestrictedError:'
p81
sI223
S'        # do not encapsulate (obfuscate) the original RestrictedError'
p82
ssS'call'
p83
S'(ccode=<code object <module> at 0x6f53f770, file "/var/...lementarTrumpfControl/kartenZiehen.html", line 1>, environment={\'A\': <class \'gluon.html.A\'>, \'ANY_OF\': <class \'gluon.validators.ANY_OF\'>, \'ASSIGNJS\': <function ASSIGNJS>, \'B\': <class \'gluon.html.B\'>, \'BEAUTIFY\': <class \'gluon.html.BEAUTIFY\'>, \'BODY\': <class \'gluon.html.BODY\'>, \'BR\': <class \'gluon.html.BR\'>, \'BUTTON\': <class \'gluon.html.BUTTON\'>, \'CAT\': <class \'gluon.html.CAT\'>, \'CENTER\': <class \'gluon.html.CENTER\'>, ...}, layer=\'/var/www/python/web2py/applications/ElementarTrumpf/views/ElementarTrumpfControl/kartenZiehen.html\', scode=r"response.write(\'\\xef\\xbb\\xbf<!DOCTYPE html>\\n<ht...\\t</footer>\\n\\t</body>\\n</html>\\n\', escape=False)")'
p84
sS'func'
p85
S'restricted'
p86
sa(dp87
g62
S'/var/www/python/web2py/applications/ElementarTrumpf/views/ElementarTrumpfControl/kartenZiehen.html'
p88
sg64
(dp89
S'header'
p90
S'undefined'
p91
sS'builtinid'
p92
S'<built-in function id>'
p93
ssg70
I10
sg71
(dp94
I1
S'response.write(\'\\xef\\xbb\\xbf<!DOCTYPE html>\\n<html lang="de">\\n\\t<head>\\n\\t  <meta http-equiv="content-type" content="text/html; charset=UTF-8" />\\n\\t  <title>Elementar Trumpf</title>\\n\\t  <link rel="stylesheet" href="/ElementarTrumpf/static/css/styleshit.css"></link>\\n\\t</head>\\n\\n\\t<body style="width: 800px">\\n\\t  <header id="header">\\n\\t\\t  <div style="height: 100px">\\n\\t\\t\\t  <div class="spieler" style="float:left;"><p>\', escape=False)'
p95
sI2
S'response.write(session.humanScore)'
p96
sI3
S'response.write(\'</p></div>\\n\\t\\t\\t  <div class="spieler" style="float:right;"><p style="float: right;">\', escape=False)'
p97
sI4
S'response.write(session.aiScore)'
p98
sI5
S"response.write('</p></div>\\n\\t\\t  </div>\\n\\t  </header>\\n\\t  <h1>', escape=False)"
p99
sI6
S'response.write(test)'
p100
sI7
S'response.write(\'</h1>\\n\\t\\t<div id="arena" style="height: 400px; width:100%;"> \\n\\t\\t\\t<div id="k1" class="karte">\\n\\t\\t\\t\\t\', escape=False)'
p101
sI8
S'if result != "none":'
p102
sI9
S'    response.write(\'\\n\\t\\t\\t\\t<div style="">\\n\\t\\t\\t\\t\\t<img src="/ElementarTrumpf/static/images/\', escape=False)'
p103
sI10
S'    response.write(humanMonsterValue[3])'
p104
sI11
S'    response.write(\'"></img>\\n\\t\\t\\t\\t</div>\\n\\t\\t\\t\\t<div class= "eigenschaften">\\n\\t\\t\\t\\t\\t<ul>\\n\\t\\t\\t\\t\\t\\t\\n\\t\\t\\t\\t\\t</ul>\\n\\t\\t\\t\\t</div>\\n\\t\\t\\t\\t\', escape=False)'
p105
sI12
S'else:'
p106
sI13
S'    response.write(\'\\n\\t\\t\\t\\t<div style="">\\n\\t\\t\\t\\t\\t<img src="/ElementarTrumpf/static/images/VK.gif"></img>\\n\\t\\t\\t\\t</div>\\n\\t\\t\\t\\t<div class= "eigenschaften"></div>\\n\\t\\t\\t\\t\', escape=False)'
p107
sI14
S'    pass'
p108
sI15
S'response.write(\'\\n\\t\\t\\t</div>\\n\\n\\t\\t\\t<div id="vs">\\n\\t\\t\\t\\t<img src="/ElementarTrumpf/static/images/VS.gif"></img>\\n\\t\\t\\t</div>\\n\\n\\t\\t\\t<div id="k2" class="karte">\\n\\t\\t\\t\\t<div>\\n\\t\\t\\t\\t\\t<img src="/ElementarTrumpf/static/images/VK.gif"></img>\\n\\t\\t\\t\\t</div>\\n\\t\\t\\t\\t<div class= "eigenschaften"></div>\\n\\t\\t\\t</div>\\n\\t\\t</div>\\n\\t\\t<footer style="height: 100px; width:100%;">\\n\\t\\t\\t<div style="font-size: 20px;" > W\\xc3\\xa4hle eine Eigenschaft! Dr\\xc3\\xbccke <a href="\', escape=False)'
p109
sI16
S"response.write(URL(vars=dict(choice='groesse')))"
p110
sI17
S'response.write(\'">g f\\xc3\\xbcr Gr\\xc3\\xb6\\xc3\\x9fe</a>, i f\\xc3\\xbcr Initiative oder s f\\xc3\\xbcr St\\xc3\\xa4rke !?</div>\\n\\t\\t</footer>\\n\\t</body>\\n</html>\\n\', escape=False)'
p111
ssg83
S'()'
p112
sg85
S'<module>'
p113
sasS'pyver'
p114
S'Python 2.7.9: /usr/bin/python (prefix: /usr)'
p115
sS'session'
p116
g57
(S's \x01\x00\x00<div><table><tr><td style="font-weight:bold;vertical-align:top;">aiScore</td><td style="vertical-align:top;">:</td><td><div>10</div></td></tr><tr><td style="font-weight:bold;vertical-align:top;">humanScore</td><td style="vertical-align:top;">:</td><td><div>0</div></td></tr></table></div>'
tRp117
sS'etype'
p118
S"<type 'exceptions.KeyError'>"
p119
sS'date'
p120
S'Tue Mar 19 02:08:04 2019'
p121
sS'response'
p122
g57
(S'sS\x18\x00\x00<div><table><tr><td style="font-weight:bold;vertical-align:top;">body</td><td style="vertical-align:top;">:</td><td><div>&lt;cStringIO.StringO object at 0x6f364e00&gt;</div></td></tr><tr><td style="font-weight:bold;vertical-align:top;">cookies</td><td style="vertical-align:top;">:</td><td><div><table><tr><td style="font-weight:bold;vertical-align:top;">session_id_elementartrumpf</td><td style="vertical-align:top;">:</td><td><div>192.168.0.5-d6347f0b-3f45-421a-a9bc-c3df72032233<table><tr><td style="font-weight:bold;vertical-align:top;">comment</td><td style="vertical-align:top;">:</td><td><div></div></td></tr><tr><td style="font-weight:bold;vertical-align:top;">domain</td><td style="vertical-align:top;">:</td><td><div></div></td></tr><tr><td style="font-weight:bold;vertical-align:top;">expires</td><td style="vertical-align:top;">:</td><td><div></div></td></tr><tr><td style="font-weight:bold;vertical-align:top;">httponly</td><td style="vertical-align:top;">:</td><td><div></div></td></tr><tr><td style="font-weight:bold;vertical-align:top;">max-age</td><td style="vertical-align:top;">:</td><td><div></div></td></tr><tr><td style="font-weight:bold;vertical-align:top;">path</td><td style="vertical-align:top;">:</td><td><div>/</div></td></tr><tr><td style="font-weight:bold;vertical-align:top;">samesite</td><td style="vertical-align:top;">:</td><td><div></div></td></tr><tr><td style="font-weight:bold;vertical-align:top;">secure</td><td style="vertical-align:top;">:</td><td><div></div></td></tr><tr><td style="font-weight:bold;vertical-align:top;">version</td><td style="vertical-align:top;">:</td><td><div></div></td></tr></table></div></td></tr></table></div></td></tr><tr><td style="font-weight:bold;vertical-align:top;">delimiters</td><td style="vertical-align:top;">:</td><td><div><table><tr><td><div>{{</div></td></tr><tr><td><div>}}</div></td></tr></table></div></td></tr><tr><td style="font-weight:bold;vertical-align:top;">files</td><td style="vertical-align:top;">:</td><td><div><table></table></div></td></tr><tr><td style="font-weight:bold;vertical-align:top;">flash</td><td style="vertical-align:top;">:</td><td><div></div></td></tr><tr><td style="font-weight:bold;vertical-align:top;">form_label_separator</td><td style="vertical-align:top;">:</td><td><div>: </div></td></tr><tr><td style="font-weight:bold;vertical-align:top;">formstyle</td><td style="vertical-align:top;">:</td><td><div>table3cols</div></td></tr><tr><td style="font-weight:bold;vertical-align:top;">generic_patterns</td><td style="vertical-align:top;">:</td><td><div><table><tr><td><div>*</div></td></tr></table></div></td></tr><tr><td style="font-weight:bold;vertical-align:top;">headers</td><td style="vertical-align:top;">:</td><td><div><table><tr><td style="font-weight:bold;vertical-align:top;">X-Powered-By</td><td style="vertical-align:top;">:</td><td><div>web2py</div></td></tr></table></div></td></tr><tr><td style="font-weight:bold;vertical-align:top;">menu</td><td style="vertical-align:top;">:</td><td><div><table></table></div></td></tr><tr><td style="font-weight:bold;vertical-align:top;">meta</td><td style="vertical-align:top;">:</td><td><div><table></table></div></td></tr><tr><td style="font-weight:bold;vertical-align:top;">models_to_run</td><td style="vertical-align:top;">:</td><td><div><table><tr><td><div>^\\w+\\.py$</div></td></tr><tr><td><div>^ElementarTrumpfControl/\\w+\\.py$</div></td></tr><tr><td><div>^ElementarTrumpfControl/kartenZiehen/\\w+\\.py$</div></td></tr></table></div></td></tr><tr><td style="font-weight:bold;vertical-align:top;">postprocessing</td><td style="vertical-align:top;">:</td><td><div><table></table></div></td></tr><tr><td style="font-weight:bold;vertical-align:top;">session_client</td><td style="vertical-align:top;">:</td><td><div>192.168.0.5</div></td></tr><tr><td style="font-weight:bold;vertical-align:top;">session_cookie_compression_level</td><td style="vertical-align:top;">:</td><td><div>None</div></td></tr><tr><td style="font-weight:bold;vertical-align:top;">session_cookie_expires</td><td style="vertical-align:top;">:</td><td><div>None</div></td></tr><tr><td style="font-weight:bold;vertical-align:top;">session_data_name</td><td style="vertical-align:top;">:</td><td><div>session_data_elementartrumpf</div></td></tr><tr><td style="font-weight:bold;vertical-align:top;">session_file</td><td style="vertical-align:top;">:</td><td><div>&lt;open file &#x27;/var/www/python/web2py/applications/ElementarTrumpf/sessions/0fa/1c5/192.168.0.5-d6347f0b-3f45-421a-a9bc-c3df72032233&#x27;, mode &#x27;rb+&#x27; at 0x6f56e808&gt;</div></td></tr><tr><td style="font-weight:bold;vertical-align:top;">session_filename</td><td style="vertical-align:top;">:</td><td><div>/var/www/python/web2py/applications/ElementarTrumpf/sessions/192.168.0.5-d6347f0b-3f45-421a-a9bc-c3df72032233</div></td></tr><tr><td style="font-weight:bold;vertical-align:top;">session_hash</td><td style="vertical-align:top;">:</td><td><div>12eca4f444ce7be1f73860feea487787</div></td></tr><tr><td style="font-weight:bold;vertical-align:top;">session_id</td><td style="vertical-align:top;">:</td><td><div>192.168.0.5-d6347f0b-3f45-421a-a9bc-c3df72032233</div></td></tr><tr><td style="font-weight:bold;vertical-align:top;">session_id_name</td><td style="vertical-align:top;">:</td><td><div>session_id_elementartrumpf</div></td></tr><tr><td style="font-weight:bold;vertical-align:top;">session_locked</td><td style="vertical-align:top;">:</td><td><div>True</div></td></tr><tr><td style="font-weight:bold;vertical-align:top;">session_masterapp</td><td style="vertical-align:top;">:</td><td><div>ElementarTrumpf</div></td></tr><tr><td style="font-weight:bold;vertical-align:top;">session_new</td><td style="vertical-align:top;">:</td><td><div>False</div></td></tr><tr><td style="font-weight:bold;vertical-align:top;">session_storage_type</td><td style="vertical-align:top;">:</td><td><div>file</div></td></tr><tr><td style="font-weight:bold;vertical-align:top;">status</td><td style="vertical-align:top;">:</td><td><div>200</div></td></tr><tr><td style="font-weight:bold;vertical-align:top;">view</td><td style="vertical-align:top;">:</td><td><div>ElementarTrumpfControl/kartenZiehen.html</div></td></tr></table></div>'
tRp123
sS'locals'
p124
(dp125
S'PY2'
p126
S'True'
p127
sS'OBJECT'
p128
S"<class 'gluon.html.OBJECT'>"
p129
sS'SQLDB'
p130
S"<class 'pydal.base.DAL'>"
p131
sg116
S"<Storage {'humanScore': 0, 'aiScore': 10}>"
p132
sS'LINK'
p133
S"<class 'gluon.html.LINK'>"
p134
sS'BR'
p135
S"<class 'gluon.html.BR'>"
p136
sS'local_import'
p137
S'<function <lambda>>'
p138
sS'OPTGROUP'
p139
S"<class 'gluon.html.OPTGROUP'>"
p140
sS'PRE'
p141
S"<class 'gluon.html.PRE'>"
p142
sS'IS_INT_IN_RANGE'
p143
S"<class 'gluon.validators.IS_INT_IN_RANGE'>"
p144
sS'to_bytes'
p145
S'<function to_bytes>'
p146
sS'IS_LOWER'
p147
S"<class 'gluon.validators.IS_LOWER'>"
p148
sS'IS_STRONG'
p149
S"<class 'gluon.validators.IS_STRONG'>"
p150
sS'cache'
p151
S'<gluon.cache.Cache object>'
p152
sS'IS_IN_DB'
p153
S"<class 'gluon.validators.IS_IN_DB'>"
p154
sS'TAG'
p155
S'<gluon.html.__TAG__ object>'
p156
sS'SQLField'
p157
S"<class 'pydal.objects.Field'>"
p158
sS'BODY'
p159
S"<class 'gluon.html.BODY'>"
p160
sS'IS_DATE_IN_RANGE'
p161
S"<class 'gluon.validators.IS_DATE_IN_RANGE'>"
p162
sS'IFRAME'
p163
S"<class 'gluon.html.IFRAME'>"
p164
sS'URL'
p165
S'<function URL>'
p166
sS'__file__'
p167
S"'/var/www/python/web2py/applications/ElementarTrumpf/views/ElementarTrumpfControl/kartenZiehen.html'"
p168
sS'choice'
p169
S"<lazyT 'groesse'>"
p170
sS'P'
S"<class 'gluon.html.P'>"
p171
sS'TFOOT'
p172
S"<class 'gluon.html.TFOOT'>"
p173
sS'iteritems'
p174
S'<function <lambda>>'
p175
sS'XHTML'
p176
S"<class 'gluon.html.XHTML'>"
p177
sS'ON'
p178
g127
sS'OL'
p179
S"<class 'gluon.html.OL'>"
p180
sS'TEXTAREA'
p181
S"<class 'gluon.html.TEXTAREA'>"
p182
sS'MENU'
p183
S"<class 'gluon.html.MENU'>"
p184
sS'EM'
p185
S"<class 'gluon.html.EM'>"
p186
sS'CODE'
p187
S"<class 'gluon.html.CODE'>"
p188
sS'HTTP'
p189
S"<class 'gluon.http.HTTP'>"
p190
sS'HR'
p191
S"<class 'gluon.html.HR'>"
p192
sS'IS_DATETIME'
p193
S"<class 'gluon.validators.IS_DATETIME'>"
p194
sS'reduce'
p195
S'<built-in function reduce>'
p196
sS'HEAD'
p197
S"<class 'gluon.html.HEAD'>"
p198
sS'LABEL'
p199
S"<class 'gluon.html.LABEL'>"
p200
sS'CLEANUP'
p201
S"<class 'gluon.validators.CLEANUP'>"
p202
sS'result'
p203
S'False'
p204
sS'SELECT'
p205
S"<class 'gluon.html.SELECT'>"
p206
sS'CENTER'
p207
S"<class 'gluon.html.CENTER'>"
p208
sS'__builtins__'
p209
S"{'ArithmeticError': <type 'exceptions.ArithmeticError'>, 'AssertionError': <type 'exceptions.AssertionError'>, 'AttributeError': <type 'exceptions.AttributeError'>, 'BaseException': <type 'exceptions.BaseException'>, 'BufferError': <type 'exceptions.BufferError'>, 'BytesWarning': <type 'exceptions.BytesWarning'>, 'DeprecationWarning': <type 'exceptions.DeprecationWarning'>, 'EOFError': <type 'exceptions.EOFError'>, 'Ellipsis': Ellipsis, 'EnvironmentError': <type 'exceptions.EnvironmentError'>, ...}"
p210
sS'HTML'
p211
S"<class 'gluon.html.HTML'>"
p212
sS'SQLFORM'
p213
S"<class 'gluon.sqlhtml.SQLFORM'>"
p214
sS'LOAD'
p215
S'<function LOAD>'
p216
sS'redirect'
p217
S'<function redirect>'
p218
sS'FIELDSET'
p219
S"<class 'gluon.html.FIELDSET'>"
p220
sS'IS_EQUAL_TO'
p221
S"<class 'gluon.validators.IS_EQUAL_TO'>"
p222
sS'embed64'
p223
S'<function embed64>'
p224
sS'IS_LIST_OF'
p225
S"<class 'gluon.validators.IS_LIST_OF'>"
p226
sS'__name__'
p227
S"'__restricted__'"
p228
sS'EMBED'
p229
S"<class 'gluon.html.EMBED'>"
p230
sS'FORM'
p231
S"<class 'gluon.html.FORM'>"
p232
sS'H2'
p233
S"<class 'gluon.html.H2'>"
p234
sS'H3'
p235
S"<class 'gluon.html.H3'>"
p236
sS'BUTTON'
p237
S"<class 'gluon.html.BUTTON'>"
p238
sS'H1'
p239
S"<class 'gluon.html.H1'>"
p240
sS'H6'
p241
S"<class 'gluon.html.H6'>"
p242
sS'H4'
p243
S"<class 'gluon.html.H4'>"
p244
sS'H5'
p245
S"<class 'gluon.html.H5'>"
p246
sS'UL'
p247
S"<class 'gluon.html.UL'>"
p248
sS'IS_UPPER'
p249
S"<class 'gluon.validators.IS_UPPER'>"
p250
sS'xmlescape'
p251
S'<function xmlescape>'
p252
sS'IS_TIME'
p253
S"<class 'gluon.validators.IS_TIME'>"
p254
sS'OPTION'
p255
S"<class 'gluon.html.OPTION'>"
p256
sS'TITLE'
p257
S"<class 'gluon.html.TITLE'>"
p258
sS'CRYPT'
p259
S"<class 'gluon.validators.CRYPT'>"
p260
sS'IS_EMPTY_OR'
p261
S"<class 'gluon.validators.IS_EMPTY_OR'>"
p262
sS'MARKMIN'
p263
S"<class 'gluon.html.MARKMIN'>"
p264
sS'INPUT'
p265
S"<class 'gluon.html.INPUT'>"
p266
sS'STRONG'
p267
S"<class 'gluon.html.STRONG'>"
p268
sS'COL'
p269
S"<class 'gluon.html.COL'>"
p270
sS'SCRIPT'
p271
S"<class 'gluon.html.SCRIPT'>"
p272
sS'TABLE'
p273
S"<class 'gluon.html.TABLE'>"
p274
sS'IS_IPV4'
p275
S"<class 'gluon.validators.IS_IPV4'>"
p276
sS'IS_LENGTH'
p277
S"<class 'gluon.validators.IS_LENGTH'>"
p278
sS'IS_IPV6'
p279
S"<class 'gluon.validators.IS_IPV6'>"
p280
sS'XML'
p281
S"<class 'gluon.html.XML'>"
p282
sS'B'
S"<class 'gluon.html.B'>"
p283
sS'IMG'
p284
S"<class 'gluon.html.IMG'>"
p285
sS'SQLTABLE'
p286
S"<class 'gluon.sqlhtml.SQLTABLE'>"
p287
sS'IS_MATCH'
p288
S"<class 'gluon.validators.IS_MATCH'>"
p289
sS'IS_ALPHANUMERIC'
p290
S"<class 'gluon.validators.IS_ALPHANUMERIC'>"
p291
sS'SPAN'
p292
S"<class 'gluon.html.SPAN'>"
p293
sS'IS_JSON'
p294
S"<class 'gluon.validators.IS_JSON'>"
p295
sS'IS_IPADDRESS'
p296
S"<class 'gluon.validators.IS_IPADDRESS'>"
p297
sS'IS_SLUG'
p298
S"<class 'gluon.validators.IS_SLUG'>"
p299
sS'BEAUTIFY'
p300
S"<class 'gluon.html.BEAUTIFY'>"
p301
sS'META'
p302
S"<class 'gluon.html.META'>"
p303
sS'IS_DATE'
p304
S"<class 'gluon.validators.IS_DATE'>"
p305
sS'IS_EMAIL'
p306
S"<class 'gluon.validators.IS_EMAIL'>"
p307
sS'IS_NOT_EMPTY'
p308
S"<class 'gluon.validators.IS_NOT_EMPTY'>"
p309
sS'xrange'
p310
S"<type 'xrange'>"
p311
sS'TBODY'
p312
S"<class 'gluon.html.TBODY'>"
p313
sS'CAT'
p314
S"<class 'gluon.html.CAT'>"
p315
sS'Field'
p316
S"<class 'pydal.objects.Field'>"
p317
sS'IS_LIST_OF_EMAILS'
p318
S"<class 'gluon.validators.IS_LIST_OF_EMAILS'>"
p319
sg56
S"<Storage {'_vars': <Storage {'choice': 'groesse'...applications/ElementarTrumpf/', 'method': 'GET'}>"
p320
sS'DIV'
p321
S"<class 'gluon.html.DIV'>"
p322
sS'LEGEND'
p323
S"<class 'gluon.html.LEGEND'>"
p324
sS'to_native'
p325
S'<function to_native>'
p326
sS'COLGROUP'
p327
S"<class 'gluon.html.COLGROUP'>"
p328
sS'DAL'
p329
S"<class 'pydal.base.DAL'>"
p330
sS'ASSIGNJS'
p331
S'<function ASSIGNJS>'
p332
sS'TR'
p333
S"<class 'gluon.html.TR'>"
p334
sS'LI'
p335
S"<class 'gluon.html.LI'>"
p336
sS'TH'
p337
S"<class 'gluon.html.TH'>"
p338
sS'test'
p339
S"'groesse'"
p340
sS'TD'
p341
S"<class 'gluon.html.TD'>"
p342
sS'IS_URL'
p343
S"<class 'gluon.validators.IS_URL'>"
p344
sS'A'
S"<class 'gluon.html.A'>"
p345
sS'STYLE'
p346
S"<class 'gluon.html.STYLE'>"
p347
sS'IS_DATETIME_IN_RANGE'
p348
S"<class 'gluon.validators.IS_DATETIME_IN_RANGE'>"
p349
sS'IS_IMAGE'
p350
S"<class 'gluon.validators.IS_IMAGE'>"
p351
sS'I'
S"<class 'gluon.html.I'>"
p352
sS'humanMonsterValue'
p353
S"{0: 'Hueter.gif', 1: '10', 2: 'H\\xc3\\xbcter der Waldes'}"
p354
sS'IS_NOT_IN_DB'
p355
S"<class 'gluon.validators.IS_NOT_IN_DB'>"
p356
sg122
S"<Storage {'body': <cStringIO.StringO object at 0...ew': 'ElementarTrumpfControl/kartenZiehen.html'}>"
p357
sS'THEAD'
p358
S"<class 'gluon.html.THEAD'>"
p359
sS'ANY_OF'
p360
S"<class 'gluon.validators.ANY_OF'>"
p361
sS'IS_NULL_OR'
p362
S"<class 'gluon.validators.IS_EMPTY_OR'>"
p363
sS'IS_FLOAT_IN_RANGE'
p364
S"<class 'gluon.validators.IS_FLOAT_IN_RANGE'>"
p365
sS'IS_EXPR'
p366
S"<class 'gluon.validators.IS_EXPR'>"
p367
sS'T'
S'<gluon.languages.translator object>'
p368
sS'IS_IN_SET'
p369
S"<class 'gluon.validators.IS_IN_SET'>"
p370
sS'IS_UPLOAD_FILENAME'
p371
S"<class 'gluon.validators.IS_UPLOAD_FILENAME'>"
p372
sS'TT'
p373
S"<class 'gluon.html.TT'>"
p374
sS'IS_DECIMAL_IN_RANGE'
p375
S"<class 'gluon.validators.IS_DECIMAL_IN_RANGE'>"
p376
sssS'traceback'
p377
S'Traceback (most recent call last):\n  File "/var/www/python/web2py/gluon/restricted.py", line 219, in restricted\n    exec(ccode, environment)\n  File "/var/www/python/web2py/applications/ElementarTrumpf/views/ElementarTrumpfControl/kartenZiehen.html", line 10, in <module>\n    <header id="header">\nKeyError: 3\n'
p378
s.